Archive member included because of file (symbol)

c:/develop/altera/13.1/nios2eds/bin/gnu/h-i686-mingw32/bin/../lib/gcc/nios2-elf/4.7.3\libgcc.a(lib2-divmod.o)
                              obj/default/mmcfs/fatfs/ff.o (__divsi3)
c:/develop/altera/13.1/nios2eds/bin/gnu/h-i686-mingw32/bin/../lib/gcc/nios2-elf/4.7.3/../../../../../H-i686-mingw32/nios2-elf/lib\libc.a(lib_a-malloc.o)
                              obj/default/ckplay.o (malloc)
c:/develop/altera/13.1/nios2eds/bin/gnu/h-i686-mingw32/bin/../lib/gcc/nios2-elf/4.7.3/../../../../../H-i686-mingw32/nios2-elf/lib\libc.a(lib_a-mallocr.o)
                              c:/develop/altera/13.1/nios2eds/bin/gnu/h-i686-mingw32/bin/../lib/gcc/nios2-elf/4.7.3/../../../../../H-i686-mingw32/nios2-elf/lib\libc.a(lib_a-malloc.o) (_malloc_r)
c:/develop/altera/13.1/nios2eds/bin/gnu/h-i686-mingw32/bin/../lib/gcc/nios2-elf/4.7.3/../../../../../H-i686-mingw32/nios2-elf/lib\libc.a(lib_a-memcpy.o)
                              obj/default/mmcfs/mmcfs.o (memcpy)
c:/develop/altera/13.1/nios2eds/bin/gnu/h-i686-mingw32/bin/../lib/gcc/nios2-elf/4.7.3/../../../../../H-i686-mingw32/nios2-elf/lib\libc.a(lib_a-memset.o)
                              obj/default/ckplay.o (memset)
c:/develop/altera/13.1/nios2eds/bin/gnu/h-i686-mingw32/bin/../lib/gcc/nios2-elf/4.7.3/../../../../../H-i686-mingw32/nios2-elf/lib\libc.a(lib_a-printf.o)
                              obj/default/ckplay.o (printf)
c:/develop/altera/13.1/nios2eds/bin/gnu/h-i686-mingw32/bin/../lib/gcc/nios2-elf/4.7.3/../../../../../H-i686-mingw32/nios2-elf/lib\libc.a(lib_a-putchar.o)
                              obj/default/nd_lib/nd_acm.o (putchar)
c:/develop/altera/13.1/nios2eds/bin/gnu/h-i686-mingw32/bin/../lib/gcc/nios2-elf/4.7.3/../../../../../H-i686-mingw32/nios2-elf/lib\libc.a(lib_a-puts.o)
                              obj/default/ckplay.o (puts)
c:/develop/altera/13.1/nios2eds/bin/gnu/h-i686-mingw32/bin/../lib/gcc/nios2-elf/4.7.3/../../../../../H-i686-mingw32/nios2-elf/lib\libc.a(lib_a-sbrkr.o)
                              c:/develop/altera/13.1/nios2eds/bin/gnu/h-i686-mingw32/bin/../lib/gcc/nios2-elf/4.7.3/../../../../../H-i686-mingw32/nios2-elf/lib\libc.a(lib_a-mallocr.o) (_sbrk_r)
c:/develop/altera/13.1/nios2eds/bin/gnu/h-i686-mingw32/bin/../lib/gcc/nios2-elf/4.7.3/../../../../../H-i686-mingw32/nios2-elf/lib\libc.a(lib_a-strcpy.o)
                              obj/default/ckplay.o (strcpy)
c:/develop/altera/13.1/nios2eds/bin/gnu/h-i686-mingw32/bin/../lib/gcc/nios2-elf/4.7.3/../../../../../H-i686-mingw32/nios2-elf/lib\libc.a(lib_a-strlen.o)
                              obj/default/ckplay.o (strlen)
c:/develop/altera/13.1/nios2eds/bin/gnu/h-i686-mingw32/bin/../lib/gcc/nios2-elf/4.7.3/../../../../../H-i686-mingw32/nios2-elf/lib\libc.a(lib_a-vfprintf.o)
                              c:/develop/altera/13.1/nios2eds/bin/gnu/h-i686-mingw32/bin/../lib/gcc/nios2-elf/4.7.3/../../../../../H-i686-mingw32/nios2-elf/lib\libc.a(lib_a-printf.o) (___vfprintf_internal_r)
c:/develop/altera/13.1/nios2eds/bin/gnu/h-i686-mingw32/bin/../lib/gcc/nios2-elf/4.7.3/../../../../../H-i686-mingw32/nios2-elf/lib\libc.a(lib_a-wsetup.o)
                              c:/develop/altera/13.1/nios2eds/bin/gnu/h-i686-mingw32/bin/../lib/gcc/nios2-elf/4.7.3/../../../../../H-i686-mingw32/nios2-elf/lib\libc.a(lib_a-vfprintf.o) (__swsetup_r)
c:/develop/altera/13.1/nios2eds/bin/gnu/h-i686-mingw32/bin/../lib/gcc/nios2-elf/4.7.3/../../../../../H-i686-mingw32/nios2-elf/lib\libc.a(lib_a-dtoa.o)
                              c:/develop/altera/13.1/nios2eds/bin/gnu/h-i686-mingw32/bin/../lib/gcc/nios2-elf/4.7.3/../../../../../H-i686-mingw32/nios2-elf/lib\libc.a(lib_a-vfprintf.o) (_dtoa_r)
c:/develop/altera/13.1/nios2eds/bin/gnu/h-i686-mingw32/bin/../lib/gcc/nios2-elf/4.7.3/../../../../../H-i686-mingw32/nios2-elf/lib\libc.a(lib_a-fflush.o)
                              c:/develop/altera/13.1/nios2eds/bin/gnu/h-i686-mingw32/bin/../lib/gcc/nios2-elf/4.7.3/../../../../../H-i686-mingw32/nios2-elf/lib\libc.a(lib_a-vfprintf.o) (_fflush_r)
c:/develop/altera/13.1/nios2eds/bin/gnu/h-i686-mingw32/bin/../lib/gcc/nios2-elf/4.7.3/../../../../../H-i686-mingw32/nios2-elf/lib\libc.a(lib_a-findfp.o)
                              c:/develop/altera/13.1/nios2eds/bin/gnu/h-i686-mingw32/bin/../lib/gcc/nios2-elf/4.7.3/../../../../../H-i686-mingw32/nios2-elf/lib\libc.a(lib_a-vfprintf.o) (__sinit)
c:/develop/altera/13.1/nios2eds/bin/gnu/h-i686-mingw32/bin/../lib/gcc/nios2-elf/4.7.3/../../../../../H-i686-mingw32/nios2-elf/lib\libc.a(lib_a-freer.o)
                              c:/develop/altera/13.1/nios2eds/bin/gnu/h-i686-mingw32/bin/../lib/gcc/nios2-elf/4.7.3/../../../../../H-i686-mingw32/nios2-elf/lib\libc.a(lib_a-malloc.o) (_free_r)
c:/develop/altera/13.1/nios2eds/bin/gnu/h-i686-mingw32/bin/../lib/gcc/nios2-elf/4.7.3/../../../../../H-i686-mingw32/nios2-elf/lib\libc.a(lib_a-fvwrite.o)
                              c:/develop/altera/13.1/nios2eds/bin/gnu/h-i686-mingw32/bin/../lib/gcc/nios2-elf/4.7.3/../../../../../H-i686-mingw32/nios2-elf/lib\libc.a(lib_a-puts.o) (__sfvwrite_r)
c:/develop/altera/13.1/nios2eds/bin/gnu/h-i686-mingw32/bin/../lib/gcc/nios2-elf/4.7.3/../../../../../H-i686-mingw32/nios2-elf/lib\libc.a(lib_a-fwalk.o)
                              c:/develop/altera/13.1/nios2eds/bin/gnu/h-i686-mingw32/bin/../lib/gcc/nios2-elf/4.7.3/../../../../../H-i686-mingw32/nios2-elf/lib\libc.a(lib_a-findfp.o) (_fwalk)
c:/develop/altera/13.1/nios2eds/bin/gnu/h-i686-mingw32/bin/../lib/gcc/nios2-elf/4.7.3/../../../../../H-i686-mingw32/nios2-elf/lib\libc.a(lib_a-impure.o)
                              c:/develop/altera/13.1/nios2eds/bin/gnu/h-i686-mingw32/bin/../lib/gcc/nios2-elf/4.7.3/../../../../../H-i686-mingw32/nios2-elf/lib\libc.a(lib_a-fflush.o) (_global_impure_ptr)
c:/develop/altera/13.1/nios2eds/bin/gnu/h-i686-mingw32/bin/../lib/gcc/nios2-elf/4.7.3/../../../../../H-i686-mingw32/nios2-elf/lib\libc.a(lib_a-int_errno.o)
                              c:/develop/altera/13.1/nios2eds/bin/gnu/h-i686-mingw32/bin/../lib/gcc/nios2-elf/4.7.3/../../../../../H-i686-mingw32/nios2-elf/lib\libc.a(lib_a-sbrkr.o) (errno)
c:/develop/altera/13.1/nios2eds/bin/gnu/h-i686-mingw32/bin/../lib/gcc/nios2-elf/4.7.3/../../../../../H-i686-mingw32/nios2-elf/lib\libc.a(lib_a-locale.o)
                              c:/develop/altera/13.1/nios2eds/bin/gnu/h-i686-mingw32/bin/../lib/gcc/nios2-elf/4.7.3/../../../../../H-i686-mingw32/nios2-elf/lib\libc.a(lib_a-vfprintf.o) (_localeconv_r)
c:/develop/altera/13.1/nios2eds/bin/gnu/h-i686-mingw32/bin/../lib/gcc/nios2-elf/4.7.3/../../../../../H-i686-mingw32/nios2-elf/lib\libc.a(lib_a-makebuf.o)
                              c:/develop/altera/13.1/nios2eds/bin/gnu/h-i686-mingw32/bin/../lib/gcc/nios2-elf/4.7.3/../../../../../H-i686-mingw32/nios2-elf/lib\libc.a(lib_a-wsetup.o) (__smakebuf_r)
c:/develop/altera/13.1/nios2eds/bin/gnu/h-i686-mingw32/bin/../lib/gcc/nios2-elf/4.7.3/../../../../../H-i686-mingw32/nios2-elf/lib\libc.a(lib_a-memchr.o)
                              c:/develop/altera/13.1/nios2eds/bin/gnu/h-i686-mingw32/bin/../lib/gcc/nios2-elf/4.7.3/../../../../../H-i686-mingw32/nios2-elf/lib\libc.a(lib_a-vfprintf.o) (memchr)
c:/develop/altera/13.1/nios2eds/bin/gnu/h-i686-mingw32/bin/../lib/gcc/nios2-elf/4.7.3/../../../../../H-i686-mingw32/nios2-elf/lib\libc.a(lib_a-memmove.o)
                              c:/develop/altera/13.1/nios2eds/bin/gnu/h-i686-mingw32/bin/../lib/gcc/nios2-elf/4.7.3/../../../../../H-i686-mingw32/nios2-elf/lib\libc.a(lib_a-fvwrite.o) (memmove)
c:/develop/altera/13.1/nios2eds/bin/gnu/h-i686-mingw32/bin/../lib/gcc/nios2-elf/4.7.3/../../../../../H-i686-mingw32/nios2-elf/lib\libc.a(lib_a-mprec.o)
                              c:/develop/altera/13.1/nios2eds/bin/gnu/h-i686-mingw32/bin/../lib/gcc/nios2-elf/4.7.3/../../../../../H-i686-mingw32/nios2-elf/lib\libc.a(lib_a-dtoa.o) (_Balloc)
c:/develop/altera/13.1/nios2eds/bin/gnu/h-i686-mingw32/bin/../lib/gcc/nios2-elf/4.7.3/../../../../../H-i686-mingw32/nios2-elf/lib\libc.a(lib_a-putc.o)
                              c:/develop/altera/13.1/nios2eds/bin/gnu/h-i686-mingw32/bin/../lib/gcc/nios2-elf/4.7.3/../../../../../H-i686-mingw32/nios2-elf/lib\libc.a(lib_a-putchar.o) (_putc_r)
c:/develop/altera/13.1/nios2eds/bin/gnu/h-i686-mingw32/bin/../lib/gcc/nios2-elf/4.7.3/../../../../../H-i686-mingw32/nios2-elf/lib\libc.a(lib_a-reallocr.o)
                              c:/develop/altera/13.1/nios2eds/bin/gnu/h-i686-mingw32/bin/../lib/gcc/nios2-elf/4.7.3/../../../../../H-i686-mingw32/nios2-elf/lib\libc.a(lib_a-fvwrite.o) (_realloc_r)
c:/develop/altera/13.1/nios2eds/bin/gnu/h-i686-mingw32/bin/../lib/gcc/nios2-elf/4.7.3/../../../../../H-i686-mingw32/nios2-elf/lib\libc.a(lib_a-s_isinfd.o)
                              c:/develop/altera/13.1/nios2eds/bin/gnu/h-i686-mingw32/bin/../lib/gcc/nios2-elf/4.7.3/../../../../../H-i686-mingw32/nios2-elf/lib\libc.a(lib_a-vfprintf.o) (__isinfd)
c:/develop/altera/13.1/nios2eds/bin/gnu/h-i686-mingw32/bin/../lib/gcc/nios2-elf/4.7.3/../../../../../H-i686-mingw32/nios2-elf/lib\libc.a(lib_a-s_isnand.o)
                              c:/develop/altera/13.1/nios2eds/bin/gnu/h-i686-mingw32/bin/../lib/gcc/nios2-elf/4.7.3/../../../../../H-i686-mingw32/nios2-elf/lib\libc.a(lib_a-vfprintf.o) (__isnand)
c:/develop/altera/13.1/nios2eds/bin/gnu/h-i686-mingw32/bin/../lib/gcc/nios2-elf/4.7.3/../../../../../H-i686-mingw32/nios2-elf/lib\libc.a(lib_a-stdio.o)
                              c:/develop/altera/13.1/nios2eds/bin/gnu/h-i686-mingw32/bin/../lib/gcc/nios2-elf/4.7.3/../../../../../H-i686-mingw32/nios2-elf/lib\libc.a(lib_a-findfp.o) (__sread)
c:/develop/altera/13.1/nios2eds/bin/gnu/h-i686-mingw32/bin/../lib/gcc/nios2-elf/4.7.3/../../../../../H-i686-mingw32/nios2-elf/lib\libc.a(lib_a-strcmp.o)
                              c:/develop/altera/13.1/nios2eds/bin/gnu/h-i686-mingw32/bin/../lib/gcc/nios2-elf/4.7.3/../../../../../H-i686-mingw32/nios2-elf/lib\libc.a(lib_a-locale.o) (strcmp)
c:/develop/altera/13.1/nios2eds/bin/gnu/h-i686-mingw32/bin/../lib/gcc/nios2-elf/4.7.3/../../../../../H-i686-mingw32/nios2-elf/lib\libc.a(lib_a-wbuf.o)
                              c:/develop/altera/13.1/nios2eds/bin/gnu/h-i686-mingw32/bin/../lib/gcc/nios2-elf/4.7.3/../../../../../H-i686-mingw32/nios2-elf/lib\libc.a(lib_a-putc.o) (__swbuf_r)
c:/develop/altera/13.1/nios2eds/bin/gnu/h-i686-mingw32/bin/../lib/gcc/nios2-elf/4.7.3/../../../../../H-i686-mingw32/nios2-elf/lib\libc.a(lib_a-writer.o)
                              c:/develop/altera/13.1/nios2eds/bin/gnu/h-i686-mingw32/bin/../lib/gcc/nios2-elf/4.7.3/../../../../../H-i686-mingw32/nios2-elf/lib\libc.a(lib_a-stdio.o) (_write_r)
c:/develop/altera/13.1/nios2eds/bin/gnu/h-i686-mingw32/bin/../lib/gcc/nios2-elf/4.7.3/../../../../../H-i686-mingw32/nios2-elf/lib\libc.a(lib_a-callocr.o)
                              c:/develop/altera/13.1/nios2eds/bin/gnu/h-i686-mingw32/bin/../lib/gcc/nios2-elf/4.7.3/../../../../../H-i686-mingw32/nios2-elf/lib\libc.a(lib_a-mprec.o) (_calloc_r)
c:/develop/altera/13.1/nios2eds/bin/gnu/h-i686-mingw32/bin/../lib/gcc/nios2-elf/4.7.3/../../../../../H-i686-mingw32/nios2-elf/lib\libc.a(lib_a-closer.o)
                              c:/develop/altera/13.1/nios2eds/bin/gnu/h-i686-mingw32/bin/../lib/gcc/nios2-elf/4.7.3/../../../../../H-i686-mingw32/nios2-elf/lib\libc.a(lib_a-stdio.o) (_close_r)
c:/develop/altera/13.1/nios2eds/bin/gnu/h-i686-mingw32/bin/../lib/gcc/nios2-elf/4.7.3/../../../../../H-i686-mingw32/nios2-elf/lib\libc.a(lib_a-fclose.o)
                              c:/develop/altera/13.1/nios2eds/bin/gnu/h-i686-mingw32/bin/../lib/gcc/nios2-elf/4.7.3/../../../../../H-i686-mingw32/nios2-elf/lib\libc.a(lib_a-findfp.o) (fclose)
c:/develop/altera/13.1/nios2eds/bin/gnu/h-i686-mingw32/bin/../lib/gcc/nios2-elf/4.7.3/../../../../../H-i686-mingw32/nios2-elf/lib\libc.a(lib_a-fstatr.o)
                              c:/develop/altera/13.1/nios2eds/bin/gnu/h-i686-mingw32/bin/../lib/gcc/nios2-elf/4.7.3/../../../../../H-i686-mingw32/nios2-elf/lib\libc.a(lib_a-makebuf.o) (_fstat_r)
c:/develop/altera/13.1/nios2eds/bin/gnu/h-i686-mingw32/bin/../lib/gcc/nios2-elf/4.7.3/../../../../../H-i686-mingw32/nios2-elf/lib\libc.a(lib_a-isattyr.o)
                              c:/develop/altera/13.1/nios2eds/bin/gnu/h-i686-mingw32/bin/../lib/gcc/nios2-elf/4.7.3/../../../../../H-i686-mingw32/nios2-elf/lib\libc.a(lib_a-makebuf.o) (_isatty_r)
c:/develop/altera/13.1/nios2eds/bin/gnu/h-i686-mingw32/bin/../lib/gcc/nios2-elf/4.7.3/../../../../../H-i686-mingw32/nios2-elf/lib\libc.a(lib_a-lseekr.o)
                              c:/develop/altera/13.1/nios2eds/bin/gnu/h-i686-mingw32/bin/../lib/gcc/nios2-elf/4.7.3/../../../../../H-i686-mingw32/nios2-elf/lib\libc.a(lib_a-stdio.o) (_lseek_r)
c:/develop/altera/13.1/nios2eds/bin/gnu/h-i686-mingw32/bin/../lib/gcc/nios2-elf/4.7.3/../../../../../H-i686-mingw32/nios2-elf/lib\libc.a(lib_a-readr.o)
                              c:/develop/altera/13.1/nios2eds/bin/gnu/h-i686-mingw32/bin/../lib/gcc/nios2-elf/4.7.3/../../../../../H-i686-mingw32/nios2-elf/lib\libc.a(lib_a-stdio.o) (_read_r)
c:/develop/altera/13.1/nios2eds/bin/gnu/h-i686-mingw32/bin/../lib/gcc/nios2-elf/4.7.3\libgcc.a(_udivdi3.o)
                              c:/develop/altera/13.1/nios2eds/bin/gnu/h-i686-mingw32/bin/../lib/gcc/nios2-elf/4.7.3/../../../../../H-i686-mingw32/nios2-elf/lib\libc.a(lib_a-vfprintf.o) (__udivdi3)
c:/develop/altera/13.1/nios2eds/bin/gnu/h-i686-mingw32/bin/../lib/gcc/nios2-elf/4.7.3\libgcc.a(_umoddi3.o)
                              c:/develop/altera/13.1/nios2eds/bin/gnu/h-i686-mingw32/bin/../lib/gcc/nios2-elf/4.7.3/../../../../../H-i686-mingw32/nios2-elf/lib\libc.a(lib_a-vfprintf.o) (__umoddi3)
c:/develop/altera/13.1/nios2eds/bin/gnu/h-i686-mingw32/bin/../lib/gcc/nios2-elf/4.7.3\libgcc.a(_addsub_df.o)
                              c:/develop/altera/13.1/nios2eds/bin/gnu/h-i686-mingw32/bin/../lib/gcc/nios2-elf/4.7.3/../../../../../H-i686-mingw32/nios2-elf/lib\libc.a(lib_a-dtoa.o) (__adddf3)
c:/develop/altera/13.1/nios2eds/bin/gnu/h-i686-mingw32/bin/../lib/gcc/nios2-elf/4.7.3\libgcc.a(_mul_df.o)
                              c:/develop/altera/13.1/nios2eds/bin/gnu/h-i686-mingw32/bin/../lib/gcc/nios2-elf/4.7.3/../../../../../H-i686-mingw32/nios2-elf/lib\libc.a(lib_a-dtoa.o) (__muldf3)
c:/develop/altera/13.1/nios2eds/bin/gnu/h-i686-mingw32/bin/../lib/gcc/nios2-elf/4.7.3\libgcc.a(_div_df.o)
                              c:/develop/altera/13.1/nios2eds/bin/gnu/h-i686-mingw32/bin/../lib/gcc/nios2-elf/4.7.3/../../../../../H-i686-mingw32/nios2-elf/lib\libc.a(lib_a-dtoa.o) (__divdf3)
c:/develop/altera/13.1/nios2eds/bin/gnu/h-i686-mingw32/bin/../lib/gcc/nios2-elf/4.7.3\libgcc.a(_eq_df.o)
                              c:/develop/altera/13.1/nios2eds/bin/gnu/h-i686-mingw32/bin/../lib/gcc/nios2-elf/4.7.3/../../../../../H-i686-mingw32/nios2-elf/lib\libc.a(lib_a-vfprintf.o) (__eqdf2)
c:/develop/altera/13.1/nios2eds/bin/gnu/h-i686-mingw32/bin/../lib/gcc/nios2-elf/4.7.3\libgcc.a(_ne_df.o)
                              c:/develop/altera/13.1/nios2eds/bin/gnu/h-i686-mingw32/bin/../lib/gcc/nios2-elf/4.7.3/../../../../../H-i686-mingw32/nios2-elf/lib\libc.a(lib_a-vfprintf.o) (__nedf2)
c:/develop/altera/13.1/nios2eds/bin/gnu/h-i686-mingw32/bin/../lib/gcc/nios2-elf/4.7.3\libgcc.a(_gt_df.o)
                              c:/develop/altera/13.1/nios2eds/bin/gnu/h-i686-mingw32/bin/../lib/gcc/nios2-elf/4.7.3/../../../../../H-i686-mingw32/nios2-elf/lib\libc.a(lib_a-dtoa.o) (__gtdf2)
c:/develop/altera/13.1/nios2eds/bin/gnu/h-i686-mingw32/bin/../lib/gcc/nios2-elf/4.7.3\libgcc.a(_ge_df.o)
                              c:/develop/altera/13.1/nios2eds/bin/gnu/h-i686-mingw32/bin/../lib/gcc/nios2-elf/4.7.3/../../../../../H-i686-mingw32/nios2-elf/lib\libc.a(lib_a-dtoa.o) (__gedf2)
c:/develop/altera/13.1/nios2eds/bin/gnu/h-i686-mingw32/bin/../lib/gcc/nios2-elf/4.7.3\libgcc.a(_lt_df.o)
                              c:/develop/altera/13.1/nios2eds/bin/gnu/h-i686-mingw32/bin/../lib/gcc/nios2-elf/4.7.3/../../../../../H-i686-mingw32/nios2-elf/lib\libc.a(lib_a-vfprintf.o) (__ltdf2)
c:/develop/altera/13.1/nios2eds/bin/gnu/h-i686-mingw32/bin/../lib/gcc/nios2-elf/4.7.3\libgcc.a(_si_to_df.o)
                              c:/develop/altera/13.1/nios2eds/bin/gnu/h-i686-mingw32/bin/../lib/gcc/nios2-elf/4.7.3/../../../../../H-i686-mingw32/nios2-elf/lib\libc.a(lib_a-dtoa.o) (__floatsidf)
c:/develop/altera/13.1/nios2eds/bin/gnu/h-i686-mingw32/bin/../lib/gcc/nios2-elf/4.7.3\libgcc.a(_df_to_si.o)
                              c:/develop/altera/13.1/nios2eds/bin/gnu/h-i686-mingw32/bin/../lib/gcc/nios2-elf/4.7.3/../../../../../H-i686-mingw32/nios2-elf/lib\libc.a(lib_a-dtoa.o) (__fixdfsi)
c:/develop/altera/13.1/nios2eds/bin/gnu/h-i686-mingw32/bin/../lib/gcc/nios2-elf/4.7.3\libgcc.a(_thenan_df.o)
                              c:/develop/altera/13.1/nios2eds/bin/gnu/h-i686-mingw32/bin/../lib/gcc/nios2-elf/4.7.3\libgcc.a(_addsub_df.o) (__thenan_df)
c:/develop/altera/13.1/nios2eds/bin/gnu/h-i686-mingw32/bin/../lib/gcc/nios2-elf/4.7.3\libgcc.a(_usi_to_df.o)
                              c:/develop/altera/13.1/nios2eds/bin/gnu/h-i686-mingw32/bin/../lib/gcc/nios2-elf/4.7.3/../../../../../H-i686-mingw32/nios2-elf/lib\libc.a(lib_a-dtoa.o) (__floatunsidf)
c:/develop/altera/13.1/nios2eds/bin/gnu/h-i686-mingw32/bin/../lib/gcc/nios2-elf/4.7.3\libgcc.a(_muldi3.o)
                              c:/develop/altera/13.1/nios2eds/bin/gnu/h-i686-mingw32/bin/../lib/gcc/nios2-elf/4.7.3\libgcc.a(_mul_df.o) (__muldi3)
c:/develop/altera/13.1/nios2eds/bin/gnu/h-i686-mingw32/bin/../lib/gcc/nios2-elf/4.7.3\libgcc.a(_clz.o)
                              c:/develop/altera/13.1/nios2eds/bin/gnu/h-i686-mingw32/bin/../lib/gcc/nios2-elf/4.7.3\libgcc.a(_udivdi3.o) (__clz_tab)
c:/develop/altera/13.1/nios2eds/bin/gnu/h-i686-mingw32/bin/../lib/gcc/nios2-elf/4.7.3\libgcc.a(_clzsi2.o)
                              c:/develop/altera/13.1/nios2eds/bin/gnu/h-i686-mingw32/bin/../lib/gcc/nios2-elf/4.7.3\libgcc.a(_si_to_df.o) (__clzsi2)
c:/develop/altera/13.1/nios2eds/bin/gnu/h-i686-mingw32/bin/../lib/gcc/nios2-elf/4.7.3\libgcc.a(_pack_df.o)
                              c:/develop/altera/13.1/nios2eds/bin/gnu/h-i686-mingw32/bin/../lib/gcc/nios2-elf/4.7.3\libgcc.a(_addsub_df.o) (__pack_d)
c:/develop/altera/13.1/nios2eds/bin/gnu/h-i686-mingw32/bin/../lib/gcc/nios2-elf/4.7.3\libgcc.a(_unpack_df.o)
                              c:/develop/altera/13.1/nios2eds/bin/gnu/h-i686-mingw32/bin/../lib/gcc/nios2-elf/4.7.3\libgcc.a(_addsub_df.o) (__unpack_d)
c:/develop/altera/13.1/nios2eds/bin/gnu/h-i686-mingw32/bin/../lib/gcc/nios2-elf/4.7.3\libgcc.a(_fpcmp_parts_df.o)
                              c:/develop/altera/13.1/nios2eds/bin/gnu/h-i686-mingw32/bin/../lib/gcc/nios2-elf/4.7.3\libgcc.a(_eq_df.o) (__fpcmp_parts_d)
c:/develop/altera/13.1/nios2eds/bin/gnu/h-i686-mingw32/bin/../lib/gcc/nios2-elf/4.7.3\libgcc.a(_lshrdi3.o)
                              c:/develop/altera/13.1/nios2eds/bin/gnu/h-i686-mingw32/bin/../lib/gcc/nios2-elf/4.7.3\libgcc.a(_pack_df.o) (__lshrdi3)
c:/develop/altera/13.1/nios2eds/bin/gnu/h-i686-mingw32/bin/../lib/gcc/nios2-elf/4.7.3\libgcc.a(_ashldi3.o)
                              c:/develop/altera/13.1/nios2eds/bin/gnu/h-i686-mingw32/bin/../lib/gcc/nios2-elf/4.7.3\libgcc.a(_pack_df.o) (__ashldi3)
../lcdunit_ckplay_bsp/\libhal_bsp.a(alt_alarm_start.o)
                              obj/default/nd_lib/nd_acm.o (alt_alarm_start)
../lcdunit_ckplay_bsp/\libhal_bsp.a(alt_close.o)
                              c:/develop/altera/13.1/nios2eds/bin/gnu/h-i686-mingw32/bin/../lib/gcc/nios2-elf/4.7.3/../../../../../H-i686-mingw32/nios2-elf/lib\libc.a(lib_a-closer.o) (close)
../lcdunit_ckplay_bsp/\libhal_bsp.a(alt_dev.o)
                              ../lcdunit_ckplay_bsp/\libhal_bsp.a(alt_close.o) (alt_fd_list)
../lcdunit_ckplay_bsp/\libhal_bsp.a(alt_errno.o)
                              ../lcdunit_ckplay_bsp/\libhal_bsp.a(alt_close.o) (alt_errno)
../lcdunit_ckplay_bsp/\libhal_bsp.a(alt_fs_reg.o)
                              obj/default/mmcfs/mmcfs.o (alt_fs_reg)
../lcdunit_ckplay_bsp/\libhal_bsp.a(alt_fstat.o)
                              c:/develop/altera/13.1/nios2eds/bin/gnu/h-i686-mingw32/bin/../lib/gcc/nios2-elf/4.7.3/../../../../../H-i686-mingw32/nios2-elf/lib\libc.a(lib_a-fstatr.o) (fstat)
../lcdunit_ckplay_bsp/\libhal_bsp.a(alt_isatty.o)
                              c:/develop/altera/13.1/nios2eds/bin/gnu/h-i686-mingw32/bin/../lib/gcc/nios2-elf/4.7.3/../../../../../H-i686-mingw32/nios2-elf/lib\libc.a(lib_a-isattyr.o) (isatty)
../lcdunit_ckplay_bsp/\libhal_bsp.a(alt_load.o)
                              ../lcdunit_ckplay_bsp//obj/HAL/src/crt0.o (alt_load)
../lcdunit_ckplay_bsp/\libhal_bsp.a(alt_lseek.o)
                              c:/develop/altera/13.1/nios2eds/bin/gnu/h-i686-mingw32/bin/../lib/gcc/nios2-elf/4.7.3/../../../../../H-i686-mingw32/nios2-elf/lib\libc.a(lib_a-lseekr.o) (lseek)
../lcdunit_ckplay_bsp/\libhal_bsp.a(alt_main.o)
                              ../lcdunit_ckplay_bsp//obj/HAL/src/crt0.o (alt_main)
../lcdunit_ckplay_bsp/\libhal_bsp.a(alt_malloc_lock.o)
                              c:/develop/altera/13.1/nios2eds/bin/gnu/h-i686-mingw32/bin/../lib/gcc/nios2-elf/4.7.3/../../../../../H-i686-mingw32/nios2-elf/lib\libc.a(lib_a-mallocr.o) (__malloc_lock)
../lcdunit_ckplay_bsp/\libhal_bsp.a(alt_read.o)
                              c:/develop/altera/13.1/nios2eds/bin/gnu/h-i686-mingw32/bin/../lib/gcc/nios2-elf/4.7.3/../../../../../H-i686-mingw32/nios2-elf/lib\libc.a(lib_a-readr.o) (read)
../lcdunit_ckplay_bsp/\libhal_bsp.a(alt_release_fd.o)
                              ../lcdunit_ckplay_bsp/\libhal_bsp.a(alt_close.o) (alt_release_fd)
../lcdunit_ckplay_bsp/\libhal_bsp.a(alt_sbrk.o)
                              c:/develop/altera/13.1/nios2eds/bin/gnu/h-i686-mingw32/bin/../lib/gcc/nios2-elf/4.7.3/../../../../../H-i686-mingw32/nios2-elf/lib\libc.a(lib_a-sbrkr.o) (sbrk)
../lcdunit_ckplay_bsp/\libhal_bsp.a(alt_tick.o)
                              ../lcdunit_ckplay_bsp/\libhal_bsp.a(alt_alarm_start.o) (_alt_nticks)
../lcdunit_ckplay_bsp/\libhal_bsp.a(alt_uncached_free.o)
                              obj/default/nd_lib/nd_acm.o (alt_uncached_free)
../lcdunit_ckplay_bsp/\libhal_bsp.a(alt_uncached_malloc.o)
                              obj/default/nd_lib/nd_acm.o (alt_uncached_malloc)
../lcdunit_ckplay_bsp/\libhal_bsp.a(alt_usleep.o)
                              obj/default/nd_lib/ILI9325.o (usleep)
../lcdunit_ckplay_bsp/\libhal_bsp.a(alt_write.o)
                              c:/develop/altera/13.1/nios2eds/bin/gnu/h-i686-mingw32/bin/../lib/gcc/nios2-elf/4.7.3/../../../../../H-i686-mingw32/nios2-elf/lib\libc.a(lib_a-writer.o) (write)
../lcdunit_ckplay_bsp/\libhal_bsp.a(alt_sys_init.o)
                              ../lcdunit_ckplay_bsp/\libhal_bsp.a(alt_main.o) (alt_irq_init)
../lcdunit_ckplay_bsp/\libhal_bsp.a(altera_avalon_jtag_uart_fd.o)
                              ../lcdunit_ckplay_bsp/\libhal_bsp.a(alt_sys_init.o) (altera_avalon_jtag_uart_read_fd)
../lcdunit_ckplay_bsp/\libhal_bsp.a(altera_avalon_jtag_uart_init.o)
                              ../lcdunit_ckplay_bsp/\libhal_bsp.a(alt_sys_init.o) (altera_avalon_jtag_uart_init)
../lcdunit_ckplay_bsp/\libhal_bsp.a(altera_avalon_jtag_uart_ioctl.o)
                              ../lcdunit_ckplay_bsp/\libhal_bsp.a(altera_avalon_jtag_uart_fd.o) (altera_avalon_jtag_uart_ioctl)
../lcdunit_ckplay_bsp/\libhal_bsp.a(altera_avalon_jtag_uart_read.o)
                              ../lcdunit_ckplay_bsp/\libhal_bsp.a(altera_avalon_jtag_uart_fd.o) (altera_avalon_jtag_uart_read)
../lcdunit_ckplay_bsp/\libhal_bsp.a(altera_avalon_jtag_uart_write.o)
                              ../lcdunit_ckplay_bsp/\libhal_bsp.a(altera_avalon_jtag_uart_fd.o) (altera_avalon_jtag_uart_write)
../lcdunit_ckplay_bsp/\libhal_bsp.a(altera_avalon_timer_sc.o)
                              ../lcdunit_ckplay_bsp/\libhal_bsp.a(alt_sys_init.o) (alt_avalon_timer_sc_init)
../lcdunit_ckplay_bsp/\libhal_bsp.a(alt_busy_sleep.o)
                              ../lcdunit_ckplay_bsp/\libhal_bsp.a(alt_usleep.o) (alt_busy_sleep)
../lcdunit_ckplay_bsp/\libhal_bsp.a(alt_dcache_flush.o)
                              ../lcdunit_ckplay_bsp/\libhal_bsp.a(alt_uncached_malloc.o) (alt_dcache_flush)
../lcdunit_ckplay_bsp/\libhal_bsp.a(alt_dcache_flush_all.o)
                              ../lcdunit_ckplay_bsp/\libhal_bsp.a(alt_load.o) (alt_dcache_flush_all)
../lcdunit_ckplay_bsp/\libhal_bsp.a(alt_dev_llist_insert.o)
                              ../lcdunit_ckplay_bsp/\libhal_bsp.a(alt_sys_init.o) (alt_dev_llist_insert)
../lcdunit_ckplay_bsp/\libhal_bsp.a(alt_do_ctors.o)
                              ../lcdunit_ckplay_bsp/\libhal_bsp.a(alt_main.o) (_do_ctors)
../lcdunit_ckplay_bsp/\libhal_bsp.a(alt_do_dtors.o)
                              ../lcdunit_ckplay_bsp/\libhal_bsp.a(alt_main.o) (_do_dtors)
../lcdunit_ckplay_bsp/\libhal_bsp.a(alt_icache_flush_all.o)
                              ../lcdunit_ckplay_bsp/\libhal_bsp.a(alt_load.o) (alt_icache_flush_all)
../lcdunit_ckplay_bsp/\libhal_bsp.a(alt_iic.o)
                              ../lcdunit_ckplay_bsp/\libhal_bsp.a(altera_avalon_jtag_uart_init.o) (alt_ic_isr_register)
../lcdunit_ckplay_bsp/\libhal_bsp.a(alt_iic_isr_register.o)
                              ../lcdunit_ckplay_bsp/\libhal_bsp.a(alt_iic.o) (alt_iic_isr_register)
../lcdunit_ckplay_bsp/\libhal_bsp.a(alt_io_redirect.o)
                              ../lcdunit_ckplay_bsp/\libhal_bsp.a(alt_main.o) (alt_io_redirect)
../lcdunit_ckplay_bsp/\libhal_bsp.a(alt_irq_entry.o)
                              ../lcdunit_ckplay_bsp/\libhal_bsp.a(alt_iic_isr_register.o) (alt_irq_entry)
../lcdunit_ckplay_bsp/\libhal_bsp.a(alt_irq_handler.o)
                              ../lcdunit_ckplay_bsp/\libhal_bsp.a(alt_iic_isr_register.o) (alt_irq_handler)
../lcdunit_ckplay_bsp/\libhal_bsp.a(alt_irq_vars.o)
                              ../lcdunit_ckplay_bsp/\libhal_bsp.a(alt_iic.o) (alt_irq_active)
../lcdunit_ckplay_bsp/\libhal_bsp.a(alt_open.o)
                              ../lcdunit_ckplay_bsp/\libhal_bsp.a(alt_io_redirect.o) (open)
../lcdunit_ckplay_bsp/\libhal_bsp.a(altera_nios2_qsys_irq.o)
                              ../lcdunit_ckplay_bsp/\libhal_bsp.a(alt_sys_init.o) (altera_nios2_qsys_irq_init)
../lcdunit_ckplay_bsp/\libhal_bsp.a(alt_exception_entry.o)
                              ../lcdunit_ckplay_bsp/\libhal_bsp.a(alt_irq_entry.o) (alt_exception)
../lcdunit_ckplay_bsp/\libhal_bsp.a(alt_find_dev.o)
                              ../lcdunit_ckplay_bsp/\libhal_bsp.a(alt_open.o) (alt_find_dev)
../lcdunit_ckplay_bsp/\libhal_bsp.a(alt_find_file.o)
                              ../lcdunit_ckplay_bsp/\libhal_bsp.a(alt_open.o) (alt_find_file)
../lcdunit_ckplay_bsp/\libhal_bsp.a(alt_get_fd.o)
                              ../lcdunit_ckplay_bsp/\libhal_bsp.a(alt_open.o) (alt_get_fd)
../lcdunit_ckplay_bsp/\libhal_bsp.a(alt_icache_flush.o)
                              ../lcdunit_ckplay_bsp/\libhal_bsp.a(alt_icache_flush_all.o) (alt_icache_flush)
c:/develop/altera/13.1/nios2eds/bin/gnu/h-i686-mingw32/bin/../lib/gcc/nios2-elf/4.7.3/../../../../../H-i686-mingw32/nios2-elf/lib\libc.a(lib_a-atexit.o)
                              ../lcdunit_ckplay_bsp/\libhal_bsp.a(alt_main.o) (atexit)
c:/develop/altera/13.1/nios2eds/bin/gnu/h-i686-mingw32/bin/../lib/gcc/nios2-elf/4.7.3/../../../../../H-i686-mingw32/nios2-elf/lib\libc.a(lib_a-exit.o)
                              ../lcdunit_ckplay_bsp/\libhal_bsp.a(alt_main.o) (exit)
c:/develop/altera/13.1/nios2eds/bin/gnu/h-i686-mingw32/bin/../lib/gcc/nios2-elf/4.7.3/../../../../../H-i686-mingw32/nios2-elf/lib\libc.a(lib_a-memcmp.o)
                              ../lcdunit_ckplay_bsp/\libhal_bsp.a(alt_find_dev.o) (memcmp)
c:/develop/altera/13.1/nios2eds/bin/gnu/h-i686-mingw32/bin/../lib/gcc/nios2-elf/4.7.3/../../../../../H-i686-mingw32/nios2-elf/lib\libc.a(lib_a-__atexit.o)
                              c:/develop/altera/13.1/nios2eds/bin/gnu/h-i686-mingw32/bin/../lib/gcc/nios2-elf/4.7.3/../../../../../H-i686-mingw32/nios2-elf/lib\libc.a(lib_a-atexit.o) (__register_exitproc)
c:/develop/altera/13.1/nios2eds/bin/gnu/h-i686-mingw32/bin/../lib/gcc/nios2-elf/4.7.3/../../../../../H-i686-mingw32/nios2-elf/lib\libc.a(lib_a-__call_atexit.o)
                              c:/develop/altera/13.1/nios2eds/bin/gnu/h-i686-mingw32/bin/../lib/gcc/nios2-elf/4.7.3/../../../../../H-i686-mingw32/nios2-elf/lib\libc.a(lib_a-exit.o) (__call_exitprocs)
../lcdunit_ckplay_bsp/\libhal_bsp.a(alt_exit.o)
                              c:/develop/altera/13.1/nios2eds/bin/gnu/h-i686-mingw32/bin/../lib/gcc/nios2-elf/4.7.3/../../../../../H-i686-mingw32/nios2-elf/lib\libc.a(lib_a-exit.o) (_exit)

Allocating common symbols
Common symbol       size              file

alt_irq             0x100             ../lcdunit_ckplay_bsp/\libhal_bsp.a(alt_irq_handler.o)
errno               0x4               c:/develop/altera/13.1/nios2eds/bin/gnu/h-i686-mingw32/bin/../lib/gcc/nios2-elf/4.7.3/../../../../../H-i686-mingw32/nios2-elf/lib\libc.a(lib_a-int_errno.o)
nd_GsEglDrawBuffer  0x4               obj/default/nd_lib/nd_egl.o
_atexit0            0x190             c:/develop/altera/13.1/nios2eds/bin/gnu/h-i686-mingw32/bin/../lib/gcc/nios2-elf/4.7.3/../../../../../H-i686-mingw32/nios2-elf/lib\libc.a(lib_a-atexit.o)

Memory Configuration

Name             Origin             Length             Attributes
sdram_BEFORE_EXCEPTION 0x00000000         0x00000020
sdram            0x00000020         0x007fffe0
reset            0x0f000000         0x00000020
ipl_memory       0x0f000020         0x00001fe0
*default*        0x00000000         0xffffffff

Linker script and memory map

LOAD ../lcdunit_ckplay_bsp//obj/HAL/src/crt0.o
LOAD obj/default/ckplay.o
LOAD obj/default/mmcfs/fatfs/ff.o
LOAD obj/default/mmcfs/fatfs/mmcbb.o
LOAD obj/default/mmcfs/fatfs/option/cc932.o
LOAD obj/default/mmcfs/gettime.o
LOAD obj/default/mmcfs/mmc_spi.o
LOAD obj/default/mmcfs/mmcfs.o
LOAD obj/default/nd_lib/ILI9325.o
LOAD obj/default/nd_lib/nd_acm.o
LOAD obj/default/nd_lib/nd_egl.o
LOAD obj/default/nd_lib/nd_acm_mcudecode.o
LOAD c:/develop/altera/13.1/nios2eds/bin/gnu/h-i686-mingw32/bin/../lib/gcc/nios2-elf/4.7.3/../../../../../H-i686-mingw32/nios2-elf/lib\libstdc++.a
LOAD c:/develop/altera/13.1/nios2eds/bin/gnu/h-i686-mingw32/bin/../lib/gcc/nios2-elf/4.7.3/../../../../../H-i686-mingw32/nios2-elf/lib\libm.a
LOAD c:/develop/altera/13.1/nios2eds/bin/gnu/h-i686-mingw32/bin/../lib/gcc/nios2-elf/4.7.3\libgcc.a
START GROUP
LOAD c:/develop/altera/13.1/nios2eds/bin/gnu/h-i686-mingw32/bin/../lib/gcc/nios2-elf/4.7.3/../../../../../H-i686-mingw32/nios2-elf/lib\libc.a
LOAD c:/develop/altera/13.1/nios2eds/bin/gnu/h-i686-mingw32/bin/../lib/gcc/nios2-elf/4.7.3\libgcc.a
LOAD ../lcdunit_ckplay_bsp/\libhal_bsp.a
END GROUP
LOAD c:/develop/altera/13.1/nios2eds/bin/gnu/h-i686-mingw32/bin/../lib/gcc/nios2-elf/4.7.3\libgcc.a
                0x00000000                __alt_mem_sdram = 0x0
                0x0f000000                __alt_mem_ipl_memory = 0xf000000

.entry          0x0f000000        0x0
 *(.entry)
 .entry         0x0f000000        0x0 ../lcdunit_ckplay_bsp//obj/HAL/src/crt0.o
                0x0f000000                __reset

.exceptions     0x00000020      0x130
                0x00000020                PROVIDE (__ram_exceptions_start, ABSOLUTE (.))
                0x00000020                . = ALIGN (0x20)
 *(.irq)
 *(.exceptions.entry.label)
 .exceptions.entry.label
                0x00000020        0x0 ../lcdunit_ckplay_bsp/\libhal_bsp.a(alt_irq_entry.o)
                0x00000020                alt_irq_entry
 .exceptions.entry.label
                0x00000020        0x0 ../lcdunit_ckplay_bsp/\libhal_bsp.a(alt_exception_entry.o)
                0x00000020                alt_exception
 *(.exceptions.entry.user)
 *(.exceptions.entry.ecc_fatal)
 *(.exceptions.entry)
 .exceptions.entry
                0x00000020       0x54 ../lcdunit_ckplay_bsp/\libhal_bsp.a(alt_exception_entry.o)
 *(.exceptions.irqtest.user)
 *(.exceptions.irqtest)
 .exceptions.irqtest
                0x00000074       0x10 ../lcdunit_ckplay_bsp/\libhal_bsp.a(alt_irq_entry.o)
 *(.exceptions.irqhandler.user)
 *(.exceptions.irqhandler)
 .exceptions.irqhandler
                0x00000084        0x4 ../lcdunit_ckplay_bsp/\libhal_bsp.a(alt_irq_entry.o)
 *(.exceptions.irqreturn.user)
 *(.exceptions.irqreturn)
 .exceptions.irqreturn
                0x00000088        0x4 ../lcdunit_ckplay_bsp/\libhal_bsp.a(alt_irq_entry.o)
 *(.exceptions.notirq.label)
 .exceptions.notirq.label
                0x0000008c        0x0 ../lcdunit_ckplay_bsp/\libhal_bsp.a(alt_irq_entry.o)
 *(.exceptions.notirq.user)
 *(.exceptions.notirq)
 .exceptions.notirq
                0x0000008c        0x8 ../lcdunit_ckplay_bsp/\libhal_bsp.a(alt_exception_entry.o)
 *(.exceptions.soft.user)
 *(.exceptions.soft)
 *(.exceptions.unknown.user)
 *(.exceptions.unknown)
 .exceptions.unknown
                0x00000094        0x4 ../lcdunit_ckplay_bsp/\libhal_bsp.a(alt_exception_entry.o)
 *(.exceptions.exit.label)
 .exceptions.exit.label
                0x00000098        0x0 ../lcdunit_ckplay_bsp/\libhal_bsp.a(alt_irq_entry.o)
 .exceptions.exit.label
                0x00000098        0x0 ../lcdunit_ckplay_bsp/\libhal_bsp.a(alt_exception_entry.o)
 *(.exceptions.exit.user)
 *(.exceptions.exit)
 .exceptions.exit
                0x00000098       0x54 ../lcdunit_ckplay_bsp/\libhal_bsp.a(alt_exception_entry.o)
 *(.exceptions)
 .exceptions    0x000000ec       0x64 ../lcdunit_ckplay_bsp/\libhal_bsp.a(alt_irq_handler.o)
                0x000000ec                alt_irq_handler
                0x00000150                PROVIDE (__ram_exceptions_end, ABSOLUTE (.))
                0x00000020                PROVIDE (__flash_exceptions_start, LOADADDR (.exceptions))

.text           0x00000150    0x12244
                0x00000150                PROVIDE (stext, ABSOLUTE (.))
 *(.interp)
 *(.hash)
 *(.dynsym)
 *(.dynstr)
 *(.gnu.version)
 *(.gnu.version_d)
 *(.gnu.version_r)
 *(.rel.init)
 *(.rela.init)
 *(.rel.text .rel.text.* .rel.gnu.linkonce.t.*)
 *(.rela.text .rela.text.* .rela.gnu.linkonce.t.*)
 *(.rel.fini)
 *(.rela.fini)
 *(.rel.rodata .rel.rodata.* .rel.gnu.linkonce.r.*)
 *(.rela.rodata .rela.rodata.* .rela.gnu.linkonce.r.*)
 *(.rel.data .rel.data.* .rel.gnu.linkonce.d.*)
 *(.rela.data .rela.data.* .rela.gnu.linkonce.d.*)
 *(.rel.tdata .rel.tdata.* .rel.gnu.linkonce.td.*)
 *(.rela.tdata .rela.tdata.* .rela.gnu.linkonce.td.*)
 *(.rel.tbss .rel.tbss.* .rel.gnu.linkonce.tb.*)
 *(.rela.tbss .rela.tbss.* .rela.gnu.linkonce.tb.*)
 *(.rel.ctors)
 *(.rela.ctors)
 *(.rel.dtors)
 *(.rela.dtors)
 *(.rel.got)
 *(.rela.got)
 *(.rel.sdata .rel.sdata.* .rel.gnu.linkonce.s.*)
 *(.rela.sdata .rela.sdata.* .rela.gnu.linkonce.s.*)
 *(.rel.sbss .rel.sbss.* .rel.gnu.linkonce.sb.*)
 *(.rela.sbss .rela.sbss.* .rela.gnu.linkonce.sb.*)
 *(.rel.sdata2 .rel.sdata2.* .rel.gnu.linkonce.s2.*)
 *(.rela.sdata2 .rela.sdata2.* .rela.gnu.linkonce.s2.*)
 *(.rel.sbss2 .rel.sbss2.* .rel.gnu.linkonce.sb2.*)
 *(.rela.sbss2 .rela.sbss2.* .rela.gnu.linkonce.sb2.*)
 *(.rel.bss .rel.bss.* .rel.gnu.linkonce.b.*)
 *(.rela.bss .rela.bss.* .rela.gnu.linkonce.b.*)
 *(.rel.plt)
 *(.rela.plt)
 *(.rel.dyn)
 *(.init)
 *(.plt)
 *(.text .stub .text.* .gnu.linkonce.t.*)
 .text          0x00000150       0x3c ../lcdunit_ckplay_bsp//obj/HAL/src/crt0.o
                0x00000150                _start
 .text          0x0000018c      0x168 obj/default/ckplay.o
                0x0000018c                open_ckdir
                0x000001d0                check_extck
                0x00000244                get_ckfilename
 .text.startup  0x000002f4      0x1c8 obj/default/ckplay.o
                0x000002f4                main
 .text          0x000004bc     0x3d84 obj/default/mmcfs/fatfs/ff.o
                0x00000f10                clust2sect
                0x00000f3c                get_fat
                0x0000120c                put_fat
                0x000022b0                gen_numname
                0x00002748                f_mount
                0x00002778                f_open
                0x00002a44                f_read
                0x00002d1c                f_write
                0x00003064                f_sync
                0x000031a4                f_close
                0x000031d0                f_lseek
                0x000034a4                f_opendir
                0x00003574                f_readdir
                0x0000362c                f_stat
                0x000036c8                f_getfree
                0x000038b4                f_truncate
                0x00003a04                f_unlink
                0x00003b60                f_mkdir
                0x00003e88                f_chmod
                0x00003f60                f_utime
                0x00004034                f_rename
 .text          0x00004240      0x9f4 obj/default/mmcfs/fatfs/mmcbb.o
                0x000045f0                disk_status
                0x00004680                disk_initialize
                0x00004860                disk_read
                0x00004978                disk_write
                0x00004acc                disk_ioctl
 .text          0x00004c34       0xe4 obj/default/mmcfs/fatfs/option/cc932.o
                0x00004c34                ff_convert
                0x00004cc4                ff_wtoupper
 .text          0x00004d18        0x8 obj/default/mmcfs/gettime.o
                0x00004d18                get_fattime
 .text          0x00004d20      0x280 obj/default/mmcfs/mmc_spi.o
                0x00004d20                mmc_spi_SetCardSelect
                0x00004d34                mmc_spi_SetCardDeselect
                0x00004d4c                mmc_spi_Sendbyte
                0x00004d70                mmc_spi_Recvbyte
                0x00004da0                mmc_spi_DmaRecv
                0x00004eb4                mmc_spi_CheckCardDetect
                0x00004ec8                mmc_spi_CheckWritePortect
                0x00004ef0                mmc_spi_SetIdentClock
                0x00004f00                mmc_spi_SetTransClock
                0x00004f10                mmc_spi_SetTimer
                0x00004f28                mmc_spi_CheckTimer
                0x00004f38                mmc_spi_Wait100us
                0x00004f58                mmc_spi_InitSocket
 .text          0x00004fa0      0x2fc obj/default/mmcfs/mmcfs.o
                0x00004fa0                dev_mmcfs_fstat
                0x00004fd0                dev_mmcfs_lseek
                0x00005040                dev_mmcfs_write
                0x00005070                dev_mmcfs_read
                0x000050a0                dev_mmcfs_close
                0x00005110                dev_mmcfs_open
                0x0000523c                mmcfs_setup
 .text          0x0000529c      0x4b8 obj/default/nd_lib/ILI9325.o
                0x0000529c                Trans_Dat
                0x00005340                ILI9325_init
                0x000056a8                ILI9325_updatefb
 .text          0x00005754      0xaa8 obj/default/nd_lib/nd_acm.o
                0x00005754                framewait_callback
                0x000059ec                framewait_start
                0x00005a48                nd_GsCkPlay
                0x00005e38                nd_GsAcmDecode
                0x00005f10                nd_acm_mcudecode_c
 .text          0x000061fc      0xb6c obj/default/nd_lib/nd_egl.o
                0x00006294                nd_GsEglPage
                0x000062bc                nd_GsEglColor
                0x000062cc                nd_GsEglPset
                0x00006398                nd_GsEglBoxfill
                0x00006514                nd_GsEglCircle
                0x000066b4                nd_GsEglLine
                0x00006814                nd_GsEglBox
                0x000068a0                nd_GsEglPutcharFont
                0x000069d4                nd_GsEglPutstrFont
                0x00006aa0                nd_GsEglSetFont
                0x00006aac                nd_GsEglPutchar
                0x00006b70                nd_GsEglPutstr
                0x00006bcc                nd_GsEglPutdec
                0x00006ca8                nd_GsEglPuthex2
                0x00006cf8                nd_GsEglPuthex8
 .text          0x00006d68      0x4e8 obj/default/nd_lib/nd_acm_mcudecode.o
                0x00006d68                nd_acm_mcudecode_asm
 .text          0x00007250      0x130 c:/develop/altera/13.1/nios2eds/bin/gnu/h-i686-mingw32/bin/../lib/gcc/nios2-elf/4.7.3\libgcc.a(lib2-divmod.o)
                0x000072c4                __divsi3
                0x00007314                __modsi3
                0x00007370                __udivsi3
                0x00007378                __umodsi3
 .text          0x00007380       0x28 c:/develop/altera/13.1/nios2eds/bin/gnu/h-i686-mingw32/bin/../lib/gcc/nios2-elf/4.7.3/../../../../../H-i686-mingw32/nios2-elf/lib\libc.a(lib_a-malloc.o)
                0x00007380                malloc
                0x00007394                free
 .text          0x000073a8      0x784 c:/develop/altera/13.1/nios2eds/bin/gnu/h-i686-mingw32/bin/../lib/gcc/nios2-elf/4.7.3/../../../../../H-i686-mingw32/nios2-elf/lib\libc.a(lib_a-mallocr.o)
                0x000073a8                _malloc_r
 .text          0x00007b2c       0xf8 c:/develop/altera/13.1/nios2eds/bin/gnu/h-i686-mingw32/bin/../lib/gcc/nios2-elf/4.7.3/../../../../../H-i686-mingw32/nios2-elf/lib\libc.a(lib_a-memcpy.o)
                0x00007b2c                memcpy
 .text          0x00007c24       0xdc c:/develop/altera/13.1/nios2eds/bin/gnu/h-i686-mingw32/bin/../lib/gcc/nios2-elf/4.7.3/../../../../../H-i686-mingw32/nios2-elf/lib\libc.a(lib_a-memset.o)
                0x00007c24                memset
 .text          0x00007d00       0x68 c:/develop/altera/13.1/nios2eds/bin/gnu/h-i686-mingw32/bin/../lib/gcc/nios2-elf/4.7.3/../../../../../H-i686-mingw32/nios2-elf/lib\libc.a(lib_a-printf.o)
                0x00007d00                _printf_r
                0x00007d2c                printf
 .text          0x00007d68       0x24 c:/develop/altera/13.1/nios2eds/bin/gnu/h-i686-mingw32/bin/../lib/gcc/nios2-elf/4.7.3/../../../../../H-i686-mingw32/nios2-elf/lib\libc.a(lib_a-putchar.o)
                0x00007d68                _putchar_r
                0x00007d70                putchar
 .text          0x00007d8c       0x98 c:/develop/altera/13.1/nios2eds/bin/gnu/h-i686-mingw32/bin/../lib/gcc/nios2-elf/4.7.3/../../../../../H-i686-mingw32/nios2-elf/lib\libc.a(lib_a-puts.o)
                0x00007d8c                _puts_r
                0x00007e10                puts
 .text          0x00007e24       0x64 c:/develop/altera/13.1/nios2eds/bin/gnu/h-i686-mingw32/bin/../lib/gcc/nios2-elf/4.7.3/../../../../../H-i686-mingw32/nios2-elf/lib\libc.a(lib_a-sbrkr.o)
                0x00007e24                _sbrk_r
 .text          0x00007e88       0x94 c:/develop/altera/13.1/nios2eds/bin/gnu/h-i686-mingw32/bin/../lib/gcc/nios2-elf/4.7.3/../../../../../H-i686-mingw32/nios2-elf/lib\libc.a(lib_a-strcpy.o)
                0x00007e88                strcpy
 .text          0x00007f1c       0x8c c:/develop/altera/13.1/nios2eds/bin/gnu/h-i686-mingw32/bin/../lib/gcc/nios2-elf/4.7.3/../../../../../H-i686-mingw32/nios2-elf/lib\libc.a(lib_a-strlen.o)
                0x00007f1c                strlen
 .text          0x00007fa8     0x1e50 c:/develop/altera/13.1/nios2eds/bin/gnu/h-i686-mingw32/bin/../lib/gcc/nios2-elf/4.7.3/../../../../../H-i686-mingw32/nios2-elf/lib\libc.a(lib_a-vfprintf.o)
                0x00007fdc                ___vfprintf_internal_r
                0x00009dd4                __vfprintf_internal
 .text          0x00009df8      0x174 c:/develop/altera/13.1/nios2eds/bin/gnu/h-i686-mingw32/bin/../lib/gcc/nios2-elf/4.7.3/../../../../../H-i686-mingw32/nios2-elf/lib\libc.a(lib_a-wsetup.o)
                0x00009df8                __swsetup_r
 .text          0x00009f6c     0x1824 c:/develop/altera/13.1/nios2eds/bin/gnu/h-i686-mingw32/bin/../lib/gcc/nios2-elf/4.7.3/../../../../../H-i686-mingw32/nios2-elf/lib\libc.a(lib_a-dtoa.o)
                0x0000a174                _dtoa_r
 .text          0x0000b790      0x218 c:/develop/altera/13.1/nios2eds/bin/gnu/h-i686-mingw32/bin/../lib/gcc/nios2-elf/4.7.3/../../../../../H-i686-mingw32/nios2-elf/lib\libc.a(lib_a-fflush.o)
                0x0000b790                _fflush_r
                0x0000b978                fflush
 .text          0x0000b9a8      0x2d8 c:/develop/altera/13.1/nios2eds/bin/gnu/h-i686-mingw32/bin/../lib/gcc/nios2-elf/4.7.3/../../../../../H-i686-mingw32/nios2-elf/lib\libc.a(lib_a-findfp.o)
                0x0000b9b8                _cleanup_r
                0x0000b9c4                __sfmoreglue
                0x0000ba28                _cleanup
                0x0000ba38                __sinit
                0x0000bb44                __sfp
                0x0000bc40                __sfp_lock_acquire
                0x0000bc44                __sfp_lock_release
                0x0000bc48                __sinit_lock_acquire
                0x0000bc4c                __sinit_lock_release
                0x0000bc50                __fp_lock_all
                0x0000bc68                __fp_unlock_all
 .text          0x0000bc80      0x40c c:/develop/altera/13.1/nios2eds/bin/gnu/h-i686-mingw32/bin/../lib/gcc/nios2-elf/4.7.3/../../../../../H-i686-mingw32/nios2-elf/lib\libc.a(lib_a-freer.o)
                0x0000bc80                _malloc_trim_r
                0x0000bdbc                _free_r
 .text          0x0000c08c      0x4e4 c:/develop/altera/13.1/nios2eds/bin/gnu/h-i686-mingw32/bin/../lib/gcc/nios2-elf/4.7.3/../../../../../H-i686-mingw32/nios2-elf/lib\libc.a(lib_a-fvwrite.o)
                0x0000c08c                __sfvwrite_r
 .text          0x0000c570      0x160 c:/develop/altera/13.1/nios2eds/bin/gnu/h-i686-mingw32/bin/../lib/gcc/nios2-elf/4.7.3/../../../../../H-i686-mingw32/nios2-elf/lib\libc.a(lib_a-fwalk.o)
                0x0000c570                _fwalk
                0x0000c618                _fwalk_reent
 .text          0x0000c6d0        0x0 c:/develop/altera/13.1/nios2eds/bin/gnu/h-i686-mingw32/bin/../lib/gcc/nios2-elf/4.7.3/../../../../../H-i686-mingw32/nios2-elf/lib\libc.a(lib_a-impure.o)
 .text          0x0000c6d0        0x0 c:/develop/altera/13.1/nios2eds/bin/gnu/h-i686-mingw32/bin/../lib/gcc/nios2-elf/4.7.3/../../../../../H-i686-mingw32/nios2-elf/lib\libc.a(lib_a-int_errno.o)
 .text          0x0000c6d0       0xdc c:/develop/altera/13.1/nios2eds/bin/gnu/h-i686-mingw32/bin/../lib/gcc/nios2-elf/4.7.3/../../../../../H-i686-mingw32/nios2-elf/lib\libc.a(lib_a-locale.o)
                0x0000c6d0                _setlocale_r
                0x0000c76c                __locale_charset
                0x0000c778                _localeconv_r
                0x0000c784                setlocale
                0x0000c7a0                localeconv
 .text          0x0000c7ac      0x1a8 c:/develop/altera/13.1/nios2eds/bin/gnu/h-i686-mingw32/bin/../lib/gcc/nios2-elf/4.7.3/../../../../../H-i686-mingw32/nios2-elf/lib\libc.a(lib_a-makebuf.o)
                0x0000c7ac                __smakebuf_r
 .text          0x0000c954       0xf8 c:/develop/altera/13.1/nios2eds/bin/gnu/h-i686-mingw32/bin/../lib/gcc/nios2-elf/4.7.3/../../../../../H-i686-mingw32/nios2-elf/lib\libc.a(lib_a-memchr.o)
                0x0000c954                memchr
 .text          0x0000ca4c      0x128 c:/develop/altera/13.1/nios2eds/bin/gnu/h-i686-mingw32/bin/../lib/gcc/nios2-elf/4.7.3/../../../../../H-i686-mingw32/nios2-elf/lib\libc.a(lib_a-memmove.o)
                0x0000ca4c                memmove
 .text          0x0000cb74      0xfa8 c:/develop/altera/13.1/nios2eds/bin/gnu/h-i686-mingw32/bin/../lib/gcc/nios2-elf/4.7.3/../../../../../H-i686-mingw32/nios2-elf/lib\libc.a(lib_a-mprec.o)
                0x0000cb74                _Balloc
                0x0000cc1c                _Bfree
                0x0000cc44                __multadd
                0x0000cd58                __s2b
                0x0000ce5c                __hi0bits
                0x0000cec4                __lo0bits
                0x0000cf74                __i2b
                0x0000cfb0                __multiply
                0x0000d190                __pow5mult
                0x0000d2bc                __lshift
                0x0000d418                __mcmp
                0x0000d470                __mdiff
                0x0000d618                __ulp
                0x0000d678                __b2d
                0x0000d7c0                __d2b
                0x0000d904                __ratio
                0x0000d9a8                _mprec_log10
                0x0000da1c                __copybits
                0x0000da98                __any_on
 .text          0x0000db1c      0x1ac c:/develop/altera/13.1/nios2eds/bin/gnu/h-i686-mingw32/bin/../lib/gcc/nios2-elf/4.7.3/../../../../../H-i686-mingw32/nios2-elf/lib\libc.a(lib_a-putc.o)
                0x0000db1c                _putc_r
                0x0000dbd8                putc
 .text          0x0000dcc8      0x5fc c:/develop/altera/13.1/nios2eds/bin/gnu/h-i686-mingw32/bin/../lib/gcc/nios2-elf/4.7.3/../../../../../H-i686-mingw32/nios2-elf/lib\libc.a(lib_a-reallocr.o)
                0x0000dcc8                _realloc_r
 .text          0x0000e2c4       0x38 c:/develop/altera/13.1/nios2eds/bin/gnu/h-i686-mingw32/bin/../lib/gcc/nios2-elf/4.7.3/../../../../../H-i686-mingw32/nios2-elf/lib\libc.a(lib_a-s_isinfd.o)
                0x0000e2c4                __isinfd
 .text          0x0000e2fc       0x2c c:/develop/altera/13.1/nios2eds/bin/gnu/h-i686-mingw32/bin/../lib/gcc/nios2-elf/4.7.3/../../../../../H-i686-mingw32/nios2-elf/lib\libc.a(lib_a-s_isnand.o)
                0x0000e2fc                __isnand
 .text          0x0000e328      0x140 c:/develop/altera/13.1/nios2eds/bin/gnu/h-i686-mingw32/bin/../lib/gcc/nios2-elf/4.7.3/../../../../../H-i686-mingw32/nios2-elf/lib\libc.a(lib_a-stdio.o)
                0x0000e328                __sread
                0x0000e37c                __swrite
                0x0000e404                __sseek
                0x0000e460                __sclose
 .text          0x0000e468       0xa4 c:/develop/altera/13.1/nios2eds/bin/gnu/h-i686-mingw32/bin/../lib/gcc/nios2-elf/4.7.3/../../../../../H-i686-mingw32/nios2-elf/lib\libc.a(lib_a-strcmp.o)
                0x0000e468                strcmp
 .text          0x0000e50c      0x158 c:/develop/altera/13.1/nios2eds/bin/gnu/h-i686-mingw32/bin/../lib/gcc/nios2-elf/4.7.3/../../../../../H-i686-mingw32/nios2-elf/lib\libc.a(lib_a-wbuf.o)
                0x0000e50c                __swbuf_r
                0x0000e648                __swbuf
 .text          0x0000e664       0x6c c:/develop/altera/13.1/nios2eds/bin/gnu/h-i686-mingw32/bin/../lib/gcc/nios2-elf/4.7.3/../../../../../H-i686-mingw32/nios2-elf/lib\libc.a(lib_a-writer.o)
                0x0000e664                _write_r
 .text          0x0000e6d0       0xbc c:/develop/altera/13.1/nios2eds/bin/gnu/h-i686-mingw32/bin/../lib/gcc/nios2-elf/4.7.3/../../../../../H-i686-mingw32/nios2-elf/lib\libc.a(lib_a-callocr.o)
                0x0000e6d0                _calloc_r
 .text          0x0000e78c       0x64 c:/develop/altera/13.1/nios2eds/bin/gnu/h-i686-mingw32/bin/../lib/gcc/nios2-elf/4.7.3/../../../../../H-i686-mingw32/nios2-elf/lib\libc.a(lib_a-closer.o)
                0x0000e78c                _close_r
 .text          0x0000e7f0      0x150 c:/develop/altera/13.1/nios2eds/bin/gnu/h-i686-mingw32/bin/../lib/gcc/nios2-elf/4.7.3/../../../../../H-i686-mingw32/nios2-elf/lib\libc.a(lib_a-fclose.o)
                0x0000e7f0                _fclose_r
                0x0000e92c                fclose
 .text          0x0000e940       0x68 c:/develop/altera/13.1/nios2eds/bin/gnu/h-i686-mingw32/bin/../lib/gcc/nios2-elf/4.7.3/../../../../../H-i686-mingw32/nios2-elf/lib\libc.a(lib_a-fstatr.o)
                0x0000e940                _fstat_r
 .text          0x0000e9a8       0x64 c:/develop/altera/13.1/nios2eds/bin/gnu/h-i686-mingw32/bin/../lib/gcc/nios2-elf/4.7.3/../../../../../H-i686-mingw32/nios2-elf/lib\libc.a(lib_a-isattyr.o)
                0x0000e9a8                _isatty_r
 .text          0x0000ea0c       0x6c c:/develop/altera/13.1/nios2eds/bin/gnu/h-i686-mingw32/bin/../lib/gcc/nios2-elf/4.7.3/../../../../../H-i686-mingw32/nios2-elf/lib\libc.a(lib_a-lseekr.o)
                0x0000ea0c                _lseek_r
 .text          0x0000ea78       0x6c c:/develop/altera/13.1/nios2eds/bin/gnu/h-i686-mingw32/bin/../lib/gcc/nios2-elf/4.7.3/../../../../../H-i686-mingw32/nios2-elf/lib\libc.a(lib_a-readr.o)
                0x0000ea78                _read_r
 .text          0x0000eae4      0x5c8 c:/develop/altera/13.1/nios2eds/bin/gnu/h-i686-mingw32/bin/../lib/gcc/nios2-elf/4.7.3\libgcc.a(_udivdi3.o)
                0x0000eae4                __udivdi3
 .text          0x0000f0ac      0x58c c:/develop/altera/13.1/nios2eds/bin/gnu/h-i686-mingw32/bin/../lib/gcc/nios2-elf/4.7.3\libgcc.a(_umoddi3.o)
                0x0000f0ac                __umoddi3
 .text          0x0000f638      0x408 c:/develop/altera/13.1/nios2eds/bin/gnu/h-i686-mingw32/bin/../lib/gcc/nios2-elf/4.7.3\libgcc.a(_addsub_df.o)
                0x0000f98c                __adddf3
                0x0000f9e0                __subdf3
 .text          0x0000fa40      0x2e4 c:/develop/altera/13.1/nios2eds/bin/gnu/h-i686-mingw32/bin/../lib/gcc/nios2-elf/4.7.3\libgcc.a(_mul_df.o)
                0x0000fa40                __muldf3
 .text          0x0000fd24      0x1b4 c:/develop/altera/13.1/nios2eds/bin/gnu/h-i686-mingw32/bin/../lib/gcc/nios2-elf/4.7.3\libgcc.a(_div_df.o)
                0x0000fd24                __divdf3
 .text          0x0000fed8       0x5c c:/develop/altera/13.1/nios2eds/bin/gnu/h-i686-mingw32/bin/../lib/gcc/nios2-elf/4.7.3\libgcc.a(_eq_df.o)
                0x0000fed8                __eqdf2
 .text          0x0000ff34       0x5c c:/develop/altera/13.1/nios2eds/bin/gnu/h-i686-mingw32/bin/../lib/gcc/nios2-elf/4.7.3\libgcc.a(_ne_df.o)
                0x0000ff34                __nedf2
 .text          0x0000ff90       0x64 c:/develop/altera/13.1/nios2eds/bin/gnu/h-i686-mingw32/bin/../lib/gcc/nios2-elf/4.7.3\libgcc.a(_gt_df.o)
                0x0000ff90                __gtdf2
 .text          0x0000fff4       0x64 c:/develop/altera/13.1/nios2eds/bin/gnu/h-i686-mingw32/bin/../lib/gcc/nios2-elf/4.7.3\libgcc.a(_ge_df.o)
                0x0000fff4                __gedf2
 .text          0x00010058       0x5c c:/develop/altera/13.1/nios2eds/bin/gnu/h-i686-mingw32/bin/../lib/gcc/nios2-elf/4.7.3\libgcc.a(_lt_df.o)
                0x00010058                __ltdf2
 .text          0x000100b4       0xd4 c:/develop/altera/13.1/nios2eds/bin/gnu/h-i686-mingw32/bin/../lib/gcc/nios2-elf/4.7.3\libgcc.a(_si_to_df.o)
                0x000100b4                __floatsidf
 .text          0x00010188       0xd4 c:/develop/altera/13.1/nios2eds/bin/gnu/h-i686-mingw32/bin/../lib/gcc/nios2-elf/4.7.3\libgcc.a(_df_to_si.o)
                0x00010188                __fixdfsi
 .text          0x0001025c        0x0 c:/develop/altera/13.1/nios2eds/bin/gnu/h-i686-mingw32/bin/../lib/gcc/nios2-elf/4.7.3\libgcc.a(_thenan_df.o)
 .text          0x0001025c      0x11c c:/develop/altera/13.1/nios2eds/bin/gnu/h-i686-mingw32/bin/../lib/gcc/nios2-elf/4.7.3\libgcc.a(_usi_to_df.o)
                0x0001025c                __floatunsidf
 .text          0x00010378       0x60 c:/develop/altera/13.1/nios2eds/bin/gnu/h-i686-mingw32/bin/../lib/gcc/nios2-elf/4.7.3\libgcc.a(_muldi3.o)
                0x00010378                __muldi3
 .text          0x000103d8        0x0 c:/develop/altera/13.1/nios2eds/bin/gnu/h-i686-mingw32/bin/../lib/gcc/nios2-elf/4.7.3\libgcc.a(_clz.o)
 .text          0x000103d8       0xac c:/develop/altera/13.1/nios2eds/bin/gnu/h-i686-mingw32/bin/../lib/gcc/nios2-elf/4.7.3\libgcc.a(_clzsi2.o)
                0x000103d8                __clzsi2
 .text          0x00010484      0x224 c:/develop/altera/13.1/nios2eds/bin/gnu/h-i686-mingw32/bin/../lib/gcc/nios2-elf/4.7.3\libgcc.a(_pack_df.o)
                0x00010484                __pack_d
 .text          0x000106a8      0x104 c:/develop/altera/13.1/nios2eds/bin/gnu/h-i686-mingw32/bin/../lib/gcc/nios2-elf/4.7.3\libgcc.a(_unpack_df.o)
                0x000106a8                __unpack_d
 .text          0x000107ac       0xd0 c:/develop/altera/13.1/nios2eds/bin/gnu/h-i686-mingw32/bin/../lib/gcc/nios2-elf/4.7.3\libgcc.a(_fpcmp_parts_df.o)
                0x000107ac                __fpcmp_parts_d
 .text          0x0001087c       0x44 c:/develop/altera/13.1/nios2eds/bin/gnu/h-i686-mingw32/bin/../lib/gcc/nios2-elf/4.7.3\libgcc.a(_lshrdi3.o)
                0x0001087c                __lshrdi3
 .text          0x000108c0       0x44 c:/develop/altera/13.1/nios2eds/bin/gnu/h-i686-mingw32/bin/../lib/gcc/nios2-elf/4.7.3\libgcc.a(_ashldi3.o)
                0x000108c0                __ashldi3
 .text          0x00010904       0x94 ../lcdunit_ckplay_bsp/\libhal_bsp.a(alt_alarm_start.o)
                0x00010904                alt_alarm_start
 .text          0x00010998       0xe0 ../lcdunit_ckplay_bsp/\libhal_bsp.a(alt_close.o)
                0x00010998                close
 .text          0x00010a78        0x8 ../lcdunit_ckplay_bsp/\libhal_bsp.a(alt_dev.o)
 .text          0x00010a80        0x0 ../lcdunit_ckplay_bsp/\libhal_bsp.a(alt_errno.o)
 .text          0x00010a80       0x38 ../lcdunit_ckplay_bsp/\libhal_bsp.a(alt_fs_reg.o)
                0x00010a80                alt_fs_reg
 .text          0x00010ab8       0x7c ../lcdunit_ckplay_bsp/\libhal_bsp.a(alt_fstat.o)
                0x00010ab8                fstat
 .text          0x00010b34       0x8c ../lcdunit_ckplay_bsp/\libhal_bsp.a(alt_isatty.o)
                0x00010b34                isatty
 .text          0x00010bc0       0xec ../lcdunit_ckplay_bsp/\libhal_bsp.a(alt_load.o)
                0x00010c2c                alt_load
 .text          0x00010cac       0x84 ../lcdunit_ckplay_bsp/\libhal_bsp.a(alt_lseek.o)
                0x00010cac                lseek
 .text          0x00010d30       0x60 ../lcdunit_ckplay_bsp/\libhal_bsp.a(alt_main.o)
                0x00010d30                alt_main
 .text          0x00010d90       0x40 ../lcdunit_ckplay_bsp/\libhal_bsp.a(alt_malloc_lock.o)
                0x00010d90                __malloc_lock
                0x00010db0                __malloc_unlock
 .text          0x00010dd0       0xec ../lcdunit_ckplay_bsp/\libhal_bsp.a(alt_read.o)
                0x00010dd0                read
 .text          0x00010ebc       0x24 ../lcdunit_ckplay_bsp/\libhal_bsp.a(alt_release_fd.o)
                0x00010ebc                alt_release_fd
 .text          0x00010ee0       0x4c ../lcdunit_ckplay_bsp/\libhal_bsp.a(alt_sbrk.o)
                0x00010ee0                sbrk
 .text          0x00010f2c      0x128 ../lcdunit_ckplay_bsp/\libhal_bsp.a(alt_tick.o)
                0x00010f2c                alt_alarm_stop
                0x00010f60                alt_tick
 .text          0x00011054       0x10 ../lcdunit_ckplay_bsp/\libhal_bsp.a(alt_uncached_free.o)
                0x00011054                alt_uncached_free
 .text          0x00011064       0x4c ../lcdunit_ckplay_bsp/\libhal_bsp.a(alt_uncached_malloc.o)
                0x00011064                alt_uncached_malloc
 .text          0x000110b0       0x30 ../lcdunit_ckplay_bsp/\libhal_bsp.a(alt_usleep.o)
                0x000110b0                usleep
 .text          0x000110e0       0xe8 ../lcdunit_ckplay_bsp/\libhal_bsp.a(alt_write.o)
                0x000110e0                write
 .text          0x000111c8       0x78 ../lcdunit_ckplay_bsp/\libhal_bsp.a(alt_sys_init.o)
                0x000111c8                alt_irq_init
                0x000111e8                alt_sys_init
 .text          0x00011240       0x3c ../lcdunit_ckplay_bsp/\libhal_bsp.a(altera_avalon_jtag_uart_fd.o)
                0x00011240                altera_avalon_jtag_uart_read_fd
                0x00011250                altera_avalon_jtag_uart_write_fd
                0x00011260                altera_avalon_jtag_uart_close_fd
                0x00011270                altera_avalon_jtag_uart_ioctl_fd
 .text          0x0001127c      0x214 ../lcdunit_ckplay_bsp/\libhal_bsp.a(altera_avalon_jtag_uart_init.o)
                0x000113dc                altera_avalon_jtag_uart_init
                0x0001145c                altera_avalon_jtag_uart_close
 .text          0x00011490       0x74 ../lcdunit_ckplay_bsp/\libhal_bsp.a(altera_avalon_jtag_uart_ioctl.o)
                0x00011490                altera_avalon_jtag_uart_ioctl
 .text          0x00011504      0x134 ../lcdunit_ckplay_bsp/\libhal_bsp.a(altera_avalon_jtag_uart_read.o)
                0x00011504                altera_avalon_jtag_uart_read
 .text          0x00011638      0x188 ../lcdunit_ckplay_bsp/\libhal_bsp.a(altera_avalon_jtag_uart_write.o)
                0x00011638                altera_avalon_jtag_uart_write
 .text          0x000117c0       0x8c ../lcdunit_ckplay_bsp/\libhal_bsp.a(altera_avalon_timer_sc.o)
                0x000117fc                alt_avalon_timer_sc_init
 .text          0x0001184c       0x88 ../lcdunit_ckplay_bsp/\libhal_bsp.a(alt_busy_sleep.o)
                0x0001184c                alt_busy_sleep
 .text          0x000118d4        0x4 ../lcdunit_ckplay_bsp/\libhal_bsp.a(alt_dcache_flush.o)
                0x000118d4                alt_dcache_flush
 .text          0x000118d8        0x4 ../lcdunit_ckplay_bsp/\libhal_bsp.a(alt_dcache_flush_all.o)
                0x000118d8                alt_dcache_flush_all
 .text          0x000118dc       0xf0 ../lcdunit_ckplay_bsp/\libhal_bsp.a(alt_dev_llist_insert.o)
                0x0001192c                alt_dev_llist_insert
 .text          0x000119cc       0x5c ../lcdunit_ckplay_bsp/\libhal_bsp.a(alt_do_ctors.o)
                0x000119cc                _do_ctors
 .text          0x00011a28       0x5c ../lcdunit_ckplay_bsp/\libhal_bsp.a(alt_do_dtors.o)
                0x00011a28                _do_dtors
 .text          0x00011a84        0xc ../lcdunit_ckplay_bsp/\libhal_bsp.a(alt_icache_flush_all.o)
                0x00011a84                alt_icache_flush_all
 .text          0x00011a90       0x9c ../lcdunit_ckplay_bsp/\libhal_bsp.a(alt_iic.o)
                0x00011a90                alt_ic_isr_register
                0x00011a94                alt_ic_irq_enable
                0x00011ad4                alt_ic_irq_disable
                0x00011b14                alt_ic_irq_enabled
 .text          0x00011b2c       0x68 ../lcdunit_ckplay_bsp/\libhal_bsp.a(alt_iic_isr_register.o)
                0x00011b2c                alt_iic_isr_register
 .text          0x00011b94       0xe8 ../lcdunit_ckplay_bsp/\libhal_bsp.a(alt_io_redirect.o)
                0x00011c04                alt_io_redirect
 .text          0x00011c7c        0x0 ../lcdunit_ckplay_bsp/\libhal_bsp.a(alt_irq_entry.o)
 .text          0x00011c7c        0x0 ../lcdunit_ckplay_bsp/\libhal_bsp.a(alt_irq_handler.o)
 .text          0x00011c7c        0x0 ../lcdunit_ckplay_bsp/\libhal_bsp.a(alt_irq_vars.o)
 .text          0x00011c7c      0x17c ../lcdunit_ckplay_bsp/\libhal_bsp.a(alt_open.o)
                0x00011c7c                open
 .text          0x00011df8        0x8 ../lcdunit_ckplay_bsp/\libhal_bsp.a(altera_nios2_qsys_irq.o)
                0x00011df8                altera_nios2_qsys_irq_init
 .text          0x00011e00        0x0 ../lcdunit_ckplay_bsp/\libhal_bsp.a(alt_exception_entry.o)
 .text          0x00011e00       0x94 ../lcdunit_ckplay_bsp/\libhal_bsp.a(alt_find_dev.o)
                0x00011e00                alt_find_dev
 .text          0x00011e94       0xac ../lcdunit_ckplay_bsp/\libhal_bsp.a(alt_find_file.o)
                0x00011e94                alt_find_file
 .text          0x00011f40       0x58 ../lcdunit_ckplay_bsp/\libhal_bsp.a(alt_get_fd.o)
                0x00011f40                alt_get_fd
 .text          0x00011f98       0x50 ../lcdunit_ckplay_bsp/\libhal_bsp.a(alt_icache_flush.o)
                0x00011f98                alt_icache_flush
 .text          0x00011fe8       0x14 c:/develop/altera/13.1/nios2eds/bin/gnu/h-i686-mingw32/bin/../lib/gcc/nios2-elf/4.7.3/../../../../../H-i686-mingw32/nios2-elf/lib\libc.a(lib_a-atexit.o)
                0x00011fe8                atexit
 .text          0x00011ffc       0x38 c:/develop/altera/13.1/nios2eds/bin/gnu/h-i686-mingw32/bin/../lib/gcc/nios2-elf/4.7.3/../../../../../H-i686-mingw32/nios2-elf/lib\libc.a(lib_a-exit.o)
                0x00011ffc                exit
 .text          0x00012034       0x7c c:/develop/altera/13.1/nios2eds/bin/gnu/h-i686-mingw32/bin/../lib/gcc/nios2-elf/4.7.3/../../../../../H-i686-mingw32/nios2-elf/lib\libc.a(lib_a-memcmp.o)
                0x00012034                memcmp
 .text          0x000120b0      0x130 c:/develop/altera/13.1/nios2eds/bin/gnu/h-i686-mingw32/bin/../lib/gcc/nios2-elf/4.7.3/../../../../../H-i686-mingw32/nios2-elf/lib\libc.a(lib_a-__atexit.o)
                0x000120b0                __register_exitproc
 .text          0x000121e0      0x1a0 c:/develop/altera/13.1/nios2eds/bin/gnu/h-i686-mingw32/bin/../lib/gcc/nios2-elf/4.7.3/../../../../../H-i686-mingw32/nios2-elf/lib\libc.a(lib_a-__call_atexit.o)
                0x000121e0                __call_exitprocs
 .text          0x00012380       0x14 ../lcdunit_ckplay_bsp/\libhal_bsp.a(alt_exit.o)
                0x00012380                _exit
 *(.gnu.warning.*)
 *(.fini)
                0x00012394                PROVIDE (__etext, ABSOLUTE (.))
                0x00012394                PROVIDE (_etext, ABSOLUTE (.))
                0x00012394                PROVIDE (etext, ABSOLUTE (.))
 *(.eh_frame_hdr)
                0x00012394                . = ALIGN (0x4)
                0x00012394                PROVIDE (__preinit_array_start, ABSOLUTE (.))
 *(.preinit_array)
                0x00012394                PROVIDE (__preinit_array_end, ABSOLUTE (.))
                0x00012394                PROVIDE (__init_array_start, ABSOLUTE (.))
 *(.init_array)
                0x00012394                PROVIDE (__init_array_end, ABSOLUTE (.))
                0x00012394                PROVIDE (__fini_array_start, ABSOLUTE (.))
 *(.fini_array)
                0x00012394                PROVIDE (__fini_array_end, ABSOLUTE (.))
 *(.eh_frame)
 *(.gcc_except_table .gcc_except_table.*)
 *(.dynamic)
                0x00012394                PROVIDE (__CTOR_LIST__, ABSOLUTE (.))
 *(.ctors)
 *(SORT(.ctors.*))
                0x00012394                PROVIDE (__CTOR_END__, ABSOLUTE (.))
                0x00012394                PROVIDE (__DTOR_LIST__, ABSOLUTE (.))
 *(.dtors)
 *(SORT(.dtors.*))
                0x00012394                PROVIDE (__DTOR_END__, ABSOLUTE (.))
 *(.jcr)
                0x00012394                . = ALIGN (0x4)

.rodata         0x00012394     0xf3ac
                0x00012394                PROVIDE (__ram_rodata_start, ABSOLUTE (.))
                0x00012394                . = ALIGN (0x4)
 *(.rodata .rodata.* .gnu.linkonce.r.*)
 .rodata.str1.4
                0x00012394       0xf7 obj/default/ckplay.o
                                 0xf8 (size before relaxing)
 *fill*         0x0001248b        0x1 
 .rodata.str1.4
                0x0001248c       0x13 obj/default/mmcfs/fatfs/ff.o
                                 0x14 (size before relaxing)
 .rodata        0x0001249f        0xd obj/default/mmcfs/fatfs/ff.o
 .rodata        0x000124ac     0xeab0 obj/default/mmcfs/fatfs/option/cc932.o
 .rodata.str1.4
                0x00020f5c        0x7 obj/default/mmcfs/mmcfs.o
                                  0x8 (size before relaxing)
 *fill*         0x00020f63        0x1 
 .rodata.str1.4
                0x00020f64       0x93 obj/default/nd_lib/nd_acm.o
                                 0x94 (size before relaxing)
 *fill*         0x00020ff7        0x1 
 .rodata        0x00020ff8       0x40 obj/default/nd_lib/nd_acm.o
 .rodata        0x00021038      0x400 obj/default/nd_lib/nd_egl.o
                0x00021038                nd_GsEglRomFont
 .rodata.str1.4
                0x00000000       0x93 c:/develop/altera/13.1/nios2eds/bin/gnu/h-i686-mingw32/bin/../lib/gcc/nios2-elf/4.7.3/../../../../../H-i686-mingw32/nios2-elf/lib\libc.a(lib_a-puts.o)
                                  0x4 (size before relaxing)
 .rodata.str1.4
                0x00021438       0x42 c:/develop/altera/13.1/nios2eds/bin/gnu/h-i686-mingw32/bin/../lib/gcc/nios2-elf/4.7.3/../../../../../H-i686-mingw32/nios2-elf/lib\libc.a(lib_a-vfprintf.o)
                                 0x44 (size before relaxing)
 .rodata        0x0002147a       0x20 c:/develop/altera/13.1/nios2eds/bin/gnu/h-i686-mingw32/bin/../lib/gcc/nios2-elf/4.7.3/../../../../../H-i686-mingw32/nios2-elf/lib\libc.a(lib_a-vfprintf.o)
 *fill*         0x0002149a        0x2 
 .rodata.str1.4
                0x0002149c       0x10 c:/develop/altera/13.1/nios2eds/bin/gnu/h-i686-mingw32/bin/../lib/gcc/nios2-elf/4.7.3/../../../../../H-i686-mingw32/nios2-elf/lib\libc.a(lib_a-dtoa.o)
                                 0x14 (size before relaxing)
 .rodata.str1.4
                0x000214ac        0x2 c:/develop/altera/13.1/nios2eds/bin/gnu/h-i686-mingw32/bin/../lib/gcc/nios2-elf/4.7.3/../../../../../H-i686-mingw32/nios2-elf/lib\libc.a(lib_a-impure.o)
                                  0x4 (size before relaxing)
 *fill*         0x000214ae        0x2 
 .rodata.str1.4
                0x000214b0        0xb c:/develop/altera/13.1/nios2eds/bin/gnu/h-i686-mingw32/bin/../lib/gcc/nios2-elf/4.7.3/../../../../../H-i686-mingw32/nios2-elf/lib\libc.a(lib_a-locale.o)
                                 0x18 (size before relaxing)
 *fill*         0x000214bb        0x1 
 .rodata        0x000214bc       0x30 c:/develop/altera/13.1/nios2eds/bin/gnu/h-i686-mingw32/bin/../lib/gcc/nios2-elf/4.7.3/../../../../../H-i686-mingw32/nios2-elf/lib\libc.a(lib_a-locale.o)
 .rodata        0x000214ec      0x124 c:/develop/altera/13.1/nios2eds/bin/gnu/h-i686-mingw32/bin/../lib/gcc/nios2-elf/4.7.3/../../../../../H-i686-mingw32/nios2-elf/lib\libc.a(lib_a-mprec.o)
                0x000214ec                __mprec_tinytens
                0x00021514                __mprec_bigtens
                0x0002153c                __mprec_tens
 .rodata        0x00021610       0x14 c:/develop/altera/13.1/nios2eds/bin/gnu/h-i686-mingw32/bin/../lib/gcc/nios2-elf/4.7.3\libgcc.a(_thenan_df.o)
                0x00021610                __thenan_df
 .rodata        0x00021624      0x100 c:/develop/altera/13.1/nios2eds/bin/gnu/h-i686-mingw32/bin/../lib/gcc/nios2-elf/4.7.3\libgcc.a(_clz.o)
                0x00021624                __clz_tab
 .rodata.str1.4
                0x00021724        0xa ../lcdunit_ckplay_bsp/\libhal_bsp.a(alt_dev.o)
                                  0xc (size before relaxing)
 *fill*         0x0002172e        0x2 
 .rodata.str1.4
                0x00021730       0x10 ../lcdunit_ckplay_bsp/\libhal_bsp.a(alt_main.o)
 .rodata.str1.4
                0x00000000       0x10 ../lcdunit_ckplay_bsp/\libhal_bsp.a(alt_sys_init.o)
 *(.rodata1)
                0x00021740                . = ALIGN (0x4)
                0x00021740                PROVIDE (__ram_rodata_end, ABSOLUTE (.))
                0x00012394                PROVIDE (__flash_rodata_start, LOADADDR (.rodata))

.onchip_memory.rwdata
                0x00021740      0x200
 .onchip_memory.rwdata
                0x00021740      0x200 obj/default/nd_lib/nd_acm.o

.rwdata         0x00021940     0x1a84
                0x00021940                PROVIDE (__ram_rwdata_start, ABSOLUTE (.))
                0x00021940                . = ALIGN (0x4)
 *(.got.plt)
 *(.got)
 *(.data1)
 *(.data .data.* .gnu.linkonce.d.*)
 .data          0x00021940        0x0 ../lcdunit_ckplay_bsp//obj/HAL/src/crt0.o
 .data          0x00021940        0x0 obj/default/ckplay.o
 .data          0x00021940        0x0 obj/default/mmcfs/fatfs/ff.o
 .data          0x00021940        0x0 obj/default/mmcfs/fatfs/mmcbb.o
 .data          0x00021940        0x0 obj/default/mmcfs/fatfs/option/cc932.o
 .data          0x00021940        0x0 obj/default/mmcfs/gettime.o
 .data          0x00021940        0x0 obj/default/mmcfs/mmc_spi.o
 .data          0x00021940       0x28 obj/default/mmcfs/mmcfs.o
 .data          0x00021968        0x0 obj/default/nd_lib/ILI9325.o
 .data          0x00021968        0x0 obj/default/nd_lib/nd_acm.o
 .data          0x00021968        0x0 obj/default/nd_lib/nd_egl.o
 .data          0x00021968        0x0 obj/default/nd_lib/nd_acm_mcudecode.o
 .data          0x00021968        0x0 c:/develop/altera/13.1/nios2eds/bin/gnu/h-i686-mingw32/bin/../lib/gcc/nios2-elf/4.7.3\libgcc.a(lib2-divmod.o)
 .data          0x00021968        0x0 c:/develop/altera/13.1/nios2eds/bin/gnu/h-i686-mingw32/bin/../lib/gcc/nios2-elf/4.7.3/../../../../../H-i686-mingw32/nios2-elf/lib\libc.a(lib_a-malloc.o)
 .data          0x00021968      0x408 c:/develop/altera/13.1/nios2eds/bin/gnu/h-i686-mingw32/bin/../lib/gcc/nios2-elf/4.7.3/../../../../../H-i686-mingw32/nios2-elf/lib\libc.a(lib_a-mallocr.o)
                0x00021968                __malloc_av_
 .data          0x00021d70        0x0 c:/develop/altera/13.1/nios2eds/bin/gnu/h-i686-mingw32/bin/../lib/gcc/nios2-elf/4.7.3/../../../../../H-i686-mingw32/nios2-elf/lib\libc.a(lib_a-memcpy.o)
 .data          0x00021d70        0x0 c:/develop/altera/13.1/nios2eds/bin/gnu/h-i686-mingw32/bin/../lib/gcc/nios2-elf/4.7.3/../../../../../H-i686-mingw32/nios2-elf/lib\libc.a(lib_a-memset.o)
 .data          0x00021d70        0x0 c:/develop/altera/13.1/nios2eds/bin/gnu/h-i686-mingw32/bin/../lib/gcc/nios2-elf/4.7.3/../../../../../H-i686-mingw32/nios2-elf/lib\libc.a(lib_a-printf.o)
 .data          0x00021d70        0x0 c:/develop/altera/13.1/nios2eds/bin/gnu/h-i686-mingw32/bin/../lib/gcc/nios2-elf/4.7.3/../../../../../H-i686-mingw32/nios2-elf/lib\libc.a(lib_a-putchar.o)
 .data          0x00021d70        0x0 c:/develop/altera/13.1/nios2eds/bin/gnu/h-i686-mingw32/bin/../lib/gcc/nios2-elf/4.7.3/../../../../../H-i686-mingw32/nios2-elf/lib\libc.a(lib_a-puts.o)
 .data          0x00021d70        0x0 c:/develop/altera/13.1/nios2eds/bin/gnu/h-i686-mingw32/bin/../lib/gcc/nios2-elf/4.7.3/../../../../../H-i686-mingw32/nios2-elf/lib\libc.a(lib_a-sbrkr.o)
 .data          0x00021d70        0x0 c:/develop/altera/13.1/nios2eds/bin/gnu/h-i686-mingw32/bin/../lib/gcc/nios2-elf/4.7.3/../../../../../H-i686-mingw32/nios2-elf/lib\libc.a(lib_a-strcpy.o)
 .data          0x00021d70        0x0 c:/develop/altera/13.1/nios2eds/bin/gnu/h-i686-mingw32/bin/../lib/gcc/nios2-elf/4.7.3/../../../../../H-i686-mingw32/nios2-elf/lib\libc.a(lib_a-strlen.o)
 .data          0x00021d70        0x0 c:/develop/altera/13.1/nios2eds/bin/gnu/h-i686-mingw32/bin/../lib/gcc/nios2-elf/4.7.3/../../../../../H-i686-mingw32/nios2-elf/lib\libc.a(lib_a-vfprintf.o)
 .data          0x00021d70        0x0 c:/develop/altera/13.1/nios2eds/bin/gnu/h-i686-mingw32/bin/../lib/gcc/nios2-elf/4.7.3/../../../../../H-i686-mingw32/nios2-elf/lib\libc.a(lib_a-wsetup.o)
 .data          0x00021d70        0x0 c:/develop/altera/13.1/nios2eds/bin/gnu/h-i686-mingw32/bin/../lib/gcc/nios2-elf/4.7.3/../../../../../H-i686-mingw32/nios2-elf/lib\libc.a(lib_a-dtoa.o)
 .data          0x00021d70        0x0 c:/develop/altera/13.1/nios2eds/bin/gnu/h-i686-mingw32/bin/../lib/gcc/nios2-elf/4.7.3/../../../../../H-i686-mingw32/nios2-elf/lib\libc.a(lib_a-fflush.o)
 .data          0x00021d70        0x0 c:/develop/altera/13.1/nios2eds/bin/gnu/h-i686-mingw32/bin/../lib/gcc/nios2-elf/4.7.3/../../../../../H-i686-mingw32/nios2-elf/lib\libc.a(lib_a-findfp.o)
 .data          0x00021d70        0x0 c:/develop/altera/13.1/nios2eds/bin/gnu/h-i686-mingw32/bin/../lib/gcc/nios2-elf/4.7.3/../../../../../H-i686-mingw32/nios2-elf/lib\libc.a(lib_a-freer.o)
 .data          0x00021d70        0x0 c:/develop/altera/13.1/nios2eds/bin/gnu/h-i686-mingw32/bin/../lib/gcc/nios2-elf/4.7.3/../../../../../H-i686-mingw32/nios2-elf/lib\libc.a(lib_a-fvwrite.o)
 .data          0x00021d70        0x0 c:/develop/altera/13.1/nios2eds/bin/gnu/h-i686-mingw32/bin/../lib/gcc/nios2-elf/4.7.3/../../../../../H-i686-mingw32/nios2-elf/lib\libc.a(lib_a-fwalk.o)
 .data          0x00021d70      0x400 c:/develop/altera/13.1/nios2eds/bin/gnu/h-i686-mingw32/bin/../lib/gcc/nios2-elf/4.7.3/../../../../../H-i686-mingw32/nios2-elf/lib\libc.a(lib_a-impure.o)
 .data          0x00022170        0x0 c:/develop/altera/13.1/nios2eds/bin/gnu/h-i686-mingw32/bin/../lib/gcc/nios2-elf/4.7.3/../../../../../H-i686-mingw32/nios2-elf/lib\libc.a(lib_a-int_errno.o)
 .data          0x00022170        0xc c:/develop/altera/13.1/nios2eds/bin/gnu/h-i686-mingw32/bin/../lib/gcc/nios2-elf/4.7.3/../../../../../H-i686-mingw32/nios2-elf/lib\libc.a(lib_a-locale.o)
                0x00022170                __lc_ctype
 .data          0x0002217c        0x0 c:/develop/altera/13.1/nios2eds/bin/gnu/h-i686-mingw32/bin/../lib/gcc/nios2-elf/4.7.3/../../../../../H-i686-mingw32/nios2-elf/lib\libc.a(lib_a-makebuf.o)
 .data          0x0002217c        0x0 c:/develop/altera/13.1/nios2eds/bin/gnu/h-i686-mingw32/bin/../lib/gcc/nios2-elf/4.7.3/../../../../../H-i686-mingw32/nios2-elf/lib\libc.a(lib_a-memchr.o)
 .data          0x0002217c        0x0 c:/develop/altera/13.1/nios2eds/bin/gnu/h-i686-mingw32/bin/../lib/gcc/nios2-elf/4.7.3/../../../../../H-i686-mingw32/nios2-elf/lib\libc.a(lib_a-memmove.o)
 .data          0x0002217c        0x0 c:/develop/altera/13.1/nios2eds/bin/gnu/h-i686-mingw32/bin/../lib/gcc/nios2-elf/4.7.3/../../../../../H-i686-mingw32/nios2-elf/lib\libc.a(lib_a-mprec.o)
 .data          0x0002217c        0x0 c:/develop/altera/13.1/nios2eds/bin/gnu/h-i686-mingw32/bin/../lib/gcc/nios2-elf/4.7.3/../../../../../H-i686-mingw32/nios2-elf/lib\libc.a(lib_a-putc.o)
 .data          0x0002217c        0x0 c:/develop/altera/13.1/nios2eds/bin/gnu/h-i686-mingw32/bin/../lib/gcc/nios2-elf/4.7.3/../../../../../H-i686-mingw32/nios2-elf/lib\libc.a(lib_a-reallocr.o)
 .data          0x0002217c        0x0 c:/develop/altera/13.1/nios2eds/bin/gnu/h-i686-mingw32/bin/../lib/gcc/nios2-elf/4.7.3/../../../../../H-i686-mingw32/nios2-elf/lib\libc.a(lib_a-s_isinfd.o)
 .data          0x0002217c        0x0 c:/develop/altera/13.1/nios2eds/bin/gnu/h-i686-mingw32/bin/../lib/gcc/nios2-elf/4.7.3/../../../../../H-i686-mingw32/nios2-elf/lib\libc.a(lib_a-s_isnand.o)
 .data          0x0002217c        0x0 c:/develop/altera/13.1/nios2eds/bin/gnu/h-i686-mingw32/bin/../lib/gcc/nios2-elf/4.7.3/../../../../../H-i686-mingw32/nios2-elf/lib\libc.a(lib_a-stdio.o)
 .data          0x0002217c        0x0 c:/develop/altera/13.1/nios2eds/bin/gnu/h-i686-mingw32/bin/../lib/gcc/nios2-elf/4.7.3/../../../../../H-i686-mingw32/nios2-elf/lib\libc.a(lib_a-strcmp.o)
 .data          0x0002217c        0x0 c:/develop/altera/13.1/nios2eds/bin/gnu/h-i686-mingw32/bin/../lib/gcc/nios2-elf/4.7.3/../../../../../H-i686-mingw32/nios2-elf/lib\libc.a(lib_a-wbuf.o)
 .data          0x0002217c        0x0 c:/develop/altera/13.1/nios2eds/bin/gnu/h-i686-mingw32/bin/../lib/gcc/nios2-elf/4.7.3/../../../../../H-i686-mingw32/nios2-elf/lib\libc.a(lib_a-writer.o)
 .data          0x0002217c        0x0 c:/develop/altera/13.1/nios2eds/bin/gnu/h-i686-mingw32/bin/../lib/gcc/nios2-elf/4.7.3/../../../../../H-i686-mingw32/nios2-elf/lib\libc.a(lib_a-callocr.o)
 .data          0x0002217c        0x0 c:/develop/altera/13.1/nios2eds/bin/gnu/h-i686-mingw32/bin/../lib/gcc/nios2-elf/4.7.3/../../../../../H-i686-mingw32/nios2-elf/lib\libc.a(lib_a-closer.o)
 .data          0x0002217c        0x0 c:/develop/altera/13.1/nios2eds/bin/gnu/h-i686-mingw32/bin/../lib/gcc/nios2-elf/4.7.3/../../../../../H-i686-mingw32/nios2-elf/lib\libc.a(lib_a-fclose.o)
 .data          0x0002217c        0x0 c:/develop/altera/13.1/nios2eds/bin/gnu/h-i686-mingw32/bin/../lib/gcc/nios2-elf/4.7.3/../../../../../H-i686-mingw32/nios2-elf/lib\libc.a(lib_a-fstatr.o)
 .data          0x0002217c        0x0 c:/develop/altera/13.1/nios2eds/bin/gnu/h-i686-mingw32/bin/../lib/gcc/nios2-elf/4.7.3/../../../../../H-i686-mingw32/nios2-elf/lib\libc.a(lib_a-isattyr.o)
 .data          0x0002217c        0x0 c:/develop/altera/13.1/nios2eds/bin/gnu/h-i686-mingw32/bin/../lib/gcc/nios2-elf/4.7.3/../../../../../H-i686-mingw32/nios2-elf/lib\libc.a(lib_a-lseekr.o)
 .data          0x0002217c        0x0 c:/develop/altera/13.1/nios2eds/bin/gnu/h-i686-mingw32/bin/../lib/gcc/nios2-elf/4.7.3/../../../../../H-i686-mingw32/nios2-elf/lib\libc.a(lib_a-readr.o)
 .data          0x0002217c        0x0 c:/develop/altera/13.1/nios2eds/bin/gnu/h-i686-mingw32/bin/../lib/gcc/nios2-elf/4.7.3\libgcc.a(_udivdi3.o)
 .data          0x0002217c        0x0 c:/develop/altera/13.1/nios2eds/bin/gnu/h-i686-mingw32/bin/../lib/gcc/nios2-elf/4.7.3\libgcc.a(_umoddi3.o)
 .data          0x0002217c        0x0 c:/develop/altera/13.1/nios2eds/bin/gnu/h-i686-mingw32/bin/../lib/gcc/nios2-elf/4.7.3\libgcc.a(_addsub_df.o)
 .data          0x0002217c        0x0 c:/develop/altera/13.1/nios2eds/bin/gnu/h-i686-mingw32/bin/../lib/gcc/nios2-elf/4.7.3\libgcc.a(_mul_df.o)
 .data          0x0002217c        0x0 c:/develop/altera/13.1/nios2eds/bin/gnu/h-i686-mingw32/bin/../lib/gcc/nios2-elf/4.7.3\libgcc.a(_div_df.o)
 .data          0x0002217c        0x0 c:/develop/altera/13.1/nios2eds/bin/gnu/h-i686-mingw32/bin/../lib/gcc/nios2-elf/4.7.3\libgcc.a(_eq_df.o)
 .data          0x0002217c        0x0 c:/develop/altera/13.1/nios2eds/bin/gnu/h-i686-mingw32/bin/../lib/gcc/nios2-elf/4.7.3\libgcc.a(_ne_df.o)
 .data          0x0002217c        0x0 c:/develop/altera/13.1/nios2eds/bin/gnu/h-i686-mingw32/bin/../lib/gcc/nios2-elf/4.7.3\libgcc.a(_gt_df.o)
 .data          0x0002217c        0x0 c:/develop/altera/13.1/nios2eds/bin/gnu/h-i686-mingw32/bin/../lib/gcc/nios2-elf/4.7.3\libgcc.a(_ge_df.o)
 .data          0x0002217c        0x0 c:/develop/altera/13.1/nios2eds/bin/gnu/h-i686-mingw32/bin/../lib/gcc/nios2-elf/4.7.3\libgcc.a(_lt_df.o)
 .data          0x0002217c        0x0 c:/develop/altera/13.1/nios2eds/bin/gnu/h-i686-mingw32/bin/../lib/gcc/nios2-elf/4.7.3\libgcc.a(_si_to_df.o)
 .data          0x0002217c        0x0 c:/develop/altera/13.1/nios2eds/bin/gnu/h-i686-mingw32/bin/../lib/gcc/nios2-elf/4.7.3\libgcc.a(_df_to_si.o)
 .data          0x0002217c        0x0 c:/develop/altera/13.1/nios2eds/bin/gnu/h-i686-mingw32/bin/../lib/gcc/nios2-elf/4.7.3\libgcc.a(_thenan_df.o)
 .data          0x0002217c        0x0 c:/develop/altera/13.1/nios2eds/bin/gnu/h-i686-mingw32/bin/../lib/gcc/nios2-elf/4.7.3\libgcc.a(_usi_to_df.o)
 .data          0x0002217c        0x0 c:/develop/altera/13.1/nios2eds/bin/gnu/h-i686-mingw32/bin/../lib/gcc/nios2-elf/4.7.3\libgcc.a(_muldi3.o)
 .data          0x0002217c        0x0 c:/develop/altera/13.1/nios2eds/bin/gnu/h-i686-mingw32/bin/../lib/gcc/nios2-elf/4.7.3\libgcc.a(_clz.o)
 .data          0x0002217c        0x0 c:/develop/altera/13.1/nios2eds/bin/gnu/h-i686-mingw32/bin/../lib/gcc/nios2-elf/4.7.3\libgcc.a(_clzsi2.o)
 .data          0x0002217c        0x0 c:/develop/altera/13.1/nios2eds/bin/gnu/h-i686-mingw32/bin/../lib/gcc/nios2-elf/4.7.3\libgcc.a(_pack_df.o)
 .data          0x0002217c        0x0 c:/develop/altera/13.1/nios2eds/bin/gnu/h-i686-mingw32/bin/../lib/gcc/nios2-elf/4.7.3\libgcc.a(_unpack_df.o)
 .data          0x0002217c        0x0 c:/develop/altera/13.1/nios2eds/bin/gnu/h-i686-mingw32/bin/../lib/gcc/nios2-elf/4.7.3\libgcc.a(_fpcmp_parts_df.o)
 .data          0x0002217c        0x0 c:/develop/altera/13.1/nios2eds/bin/gnu/h-i686-mingw32/bin/../lib/gcc/nios2-elf/4.7.3\libgcc.a(_lshrdi3.o)
 .data          0x0002217c        0x0 c:/develop/altera/13.1/nios2eds/bin/gnu/h-i686-mingw32/bin/../lib/gcc/nios2-elf/4.7.3\libgcc.a(_ashldi3.o)
 .data          0x0002217c        0x0 ../lcdunit_ckplay_bsp/\libhal_bsp.a(alt_alarm_start.o)
 .data          0x0002217c        0x0 ../lcdunit_ckplay_bsp/\libhal_bsp.a(alt_close.o)
 .data          0x0002217c      0x1a8 ../lcdunit_ckplay_bsp/\libhal_bsp.a(alt_dev.o)
                0x0002217c                alt_fd_list
                0x000222fc                alt_dev_null
 .data          0x00022324        0x0 ../lcdunit_ckplay_bsp/\libhal_bsp.a(alt_errno.o)
 .data          0x00022324        0x0 ../lcdunit_ckplay_bsp/\libhal_bsp.a(alt_fs_reg.o)
 .data          0x00022324        0x0 ../lcdunit_ckplay_bsp/\libhal_bsp.a(alt_fstat.o)
 .data          0x00022324        0x0 ../lcdunit_ckplay_bsp/\libhal_bsp.a(alt_isatty.o)
 .data          0x00022324        0x0 ../lcdunit_ckplay_bsp/\libhal_bsp.a(alt_load.o)
 .data          0x00022324        0x0 ../lcdunit_ckplay_bsp/\libhal_bsp.a(alt_lseek.o)
 .data          0x00022324        0x0 ../lcdunit_ckplay_bsp/\libhal_bsp.a(alt_main.o)
 .data          0x00022324        0x0 ../lcdunit_ckplay_bsp/\libhal_bsp.a(alt_malloc_lock.o)
 .data          0x00022324        0x0 ../lcdunit_ckplay_bsp/\libhal_bsp.a(alt_read.o)
 .data          0x00022324        0x0 ../lcdunit_ckplay_bsp/\libhal_bsp.a(alt_release_fd.o)
 .data          0x00022324        0x0 ../lcdunit_ckplay_bsp/\libhal_bsp.a(alt_sbrk.o)
 .data          0x00022324        0x0 ../lcdunit_ckplay_bsp/\libhal_bsp.a(alt_tick.o)
 .data          0x00022324        0x0 ../lcdunit_ckplay_bsp/\libhal_bsp.a(alt_uncached_free.o)
 .data          0x00022324        0x0 ../lcdunit_ckplay_bsp/\libhal_bsp.a(alt_uncached_malloc.o)
 .data          0x00022324        0x0 ../lcdunit_ckplay_bsp/\libhal_bsp.a(alt_usleep.o)
 .data          0x00022324        0x0 ../lcdunit_ckplay_bsp/\libhal_bsp.a(alt_write.o)
 .data          0x00022324     0x1060 ../lcdunit_ckplay_bsp/\libhal_bsp.a(alt_sys_init.o)
 .data          0x00023384        0x0 ../lcdunit_ckplay_bsp/\libhal_bsp.a(altera_avalon_jtag_uart_fd.o)
 .data          0x00023384        0x0 ../lcdunit_ckplay_bsp/\libhal_bsp.a(altera_avalon_jtag_uart_init.o)
 .data          0x00023384        0x0 ../lcdunit_ckplay_bsp/\libhal_bsp.a(altera_avalon_jtag_uart_ioctl.o)
 .data          0x00023384        0x0 ../lcdunit_ckplay_bsp/\libhal_bsp.a(altera_avalon_jtag_uart_read.o)
 .data          0x00023384        0x0 ../lcdunit_ckplay_bsp/\libhal_bsp.a(altera_avalon_jtag_uart_write.o)
 .data          0x00023384        0x0 ../lcdunit_ckplay_bsp/\libhal_bsp.a(altera_avalon_timer_sc.o)
 .data          0x00023384        0x0 ../lcdunit_ckplay_bsp/\libhal_bsp.a(alt_busy_sleep.o)
 .data          0x00023384        0x0 ../lcdunit_ckplay_bsp/\libhal_bsp.a(alt_dcache_flush.o)
 .data          0x00023384        0x0 ../lcdunit_ckplay_bsp/\libhal_bsp.a(alt_dcache_flush_all.o)
 .data          0x00023384        0x0 ../lcdunit_ckplay_bsp/\libhal_bsp.a(alt_dev_llist_insert.o)
 .data          0x00023384        0x0 ../lcdunit_ckplay_bsp/\libhal_bsp.a(alt_do_ctors.o)
 .data          0x00023384        0x0 ../lcdunit_ckplay_bsp/\libhal_bsp.a(alt_do_dtors.o)
 .data          0x00023384        0x0 ../lcdunit_ckplay_bsp/\libhal_bsp.a(alt_icache_flush_all.o)
 .data          0x00023384        0x0 ../lcdunit_ckplay_bsp/\libhal_bsp.a(alt_iic.o)
 .data          0x00023384        0x0 ../lcdunit_ckplay_bsp/\libhal_bsp.a(alt_iic_isr_register.o)
 .data          0x00023384        0x0 ../lcdunit_ckplay_bsp/\libhal_bsp.a(alt_io_redirect.o)
 .data          0x00023384        0x0 ../lcdunit_ckplay_bsp/\libhal_bsp.a(alt_irq_entry.o)
 .data          0x00023384        0x0 ../lcdunit_ckplay_bsp/\libhal_bsp.a(alt_irq_handler.o)
 .data          0x00023384        0x0 ../lcdunit_ckplay_bsp/\libhal_bsp.a(alt_irq_vars.o)
 .data          0x00023384        0x0 ../lcdunit_ckplay_bsp/\libhal_bsp.a(alt_open.o)
 .data          0x00023384        0x0 ../lcdunit_ckplay_bsp/\libhal_bsp.a(altera_nios2_qsys_irq.o)
 .data          0x00023384        0x0 ../lcdunit_ckplay_bsp/\libhal_bsp.a(alt_exception_entry.o)
 .data          0x00023384        0x0 ../lcdunit_ckplay_bsp/\libhal_bsp.a(alt_find_dev.o)
 .data          0x00023384        0x0 ../lcdunit_ckplay_bsp/\libhal_bsp.a(alt_find_file.o)
 .data          0x00023384        0x0 ../lcdunit_ckplay_bsp/\libhal_bsp.a(alt_get_fd.o)
 .data          0x00023384        0x0 ../lcdunit_ckplay_bsp/\libhal_bsp.a(alt_icache_flush.o)
 .data          0x00023384        0x0 c:/develop/altera/13.1/nios2eds/bin/gnu/h-i686-mingw32/bin/../lib/gcc/nios2-elf/4.7.3/../../../../../H-i686-mingw32/nios2-elf/lib\libc.a(lib_a-atexit.o)
 .data          0x00023384        0x0 c:/develop/altera/13.1/nios2eds/bin/gnu/h-i686-mingw32/bin/../lib/gcc/nios2-elf/4.7.3/../../../../../H-i686-mingw32/nios2-elf/lib\libc.a(lib_a-exit.o)
 .data          0x00023384        0x0 c:/develop/altera/13.1/nios2eds/bin/gnu/h-i686-mingw32/bin/../lib/gcc/nios2-elf/4.7.3/../../../../../H-i686-mingw32/nios2-elf/lib\libc.a(lib_a-memcmp.o)
 .data          0x00023384        0x0 c:/develop/altera/13.1/nios2eds/bin/gnu/h-i686-mingw32/bin/../lib/gcc/nios2-elf/4.7.3/../../../../../H-i686-mingw32/nios2-elf/lib\libc.a(lib_a-__atexit.o)
 .data          0x00023384        0x0 c:/develop/altera/13.1/nios2eds/bin/gnu/h-i686-mingw32/bin/../lib/gcc/nios2-elf/4.7.3/../../../../../H-i686-mingw32/nios2-elf/lib\libc.a(lib_a-__call_atexit.o)
 .data          0x00023384        0x0 ../lcdunit_ckplay_bsp/\libhal_bsp.a(alt_exit.o)
                0x0002b384                _gp = ABSOLUTE ((. + 0x8000))
                0x0002b384                PROVIDE (gp, _gp)
 *(.rwdata .rwdata.*)
 *(.sdata .sdata.* .gnu.linkonce.s.*)
 .sdata         0x00023384        0x1 obj/default/mmcfs/fatfs/mmcbb.o
 *fill*         0x00023385        0x3 
 .sdata         0x00023388        0x8 c:/develop/altera/13.1/nios2eds/bin/gnu/h-i686-mingw32/bin/../lib/gcc/nios2-elf/4.7.3/../../../../../H-i686-mingw32/nios2-elf/lib\libc.a(lib_a-mallocr.o)
                0x00023388                __malloc_sbrk_base
                0x0002338c                __malloc_trim_threshold
 .sdata         0x00023390        0x8 c:/develop/altera/13.1/nios2eds/bin/gnu/h-i686-mingw32/bin/../lib/gcc/nios2-elf/4.7.3/../../../../../H-i686-mingw32/nios2-elf/lib\libc.a(lib_a-impure.o)
                0x00023390                _global_impure_ptr
                0x00023394                _impure_ptr
 .sdata         0x00023398        0x4 c:/develop/altera/13.1/nios2eds/bin/gnu/h-i686-mingw32/bin/../lib/gcc/nios2-elf/4.7.3/../../../../../H-i686-mingw32/nios2-elf/lib\libc.a(lib_a-locale.o)
                0x00023398                __mb_cur_max
 .sdata         0x0002339c       0x14 ../lcdunit_ckplay_bsp/\libhal_bsp.a(alt_dev.o)
                0x0002339c                alt_max_fd
                0x000233a0                alt_dev_list
                0x000233a8                alt_fs_list
 .sdata         0x000233b0        0x4 ../lcdunit_ckplay_bsp/\libhal_bsp.a(alt_errno.o)
                0x000233b0                alt_errno
 .sdata         0x000233b4        0x4 ../lcdunit_ckplay_bsp/\libhal_bsp.a(alt_sbrk.o)
 .sdata         0x000233b8        0x8 ../lcdunit_ckplay_bsp/\libhal_bsp.a(alt_tick.o)
                0x000233b8                alt_alarm_list
 .sdata         0x000233c0        0x4 ../lcdunit_ckplay_bsp/\libhal_bsp.a(alt_irq_vars.o)
                0x000233c0                alt_priority_mask
 *(.sdata2 .sdata2.* .gnu.linkonce.s2.*)
                0x000233c4                . = ALIGN (0x4)
                0x000233c4                _edata = ABSOLUTE (.)
                0x000233c4                PROVIDE (edata, ABSOLUTE (.))
                0x000233c4                PROVIDE (__ram_rwdata_end, ABSOLUTE (.))
                0x00021940                PROVIDE (__flash_rwdata_start, LOADADDR (.rwdata))

.bss            0x000233c4      0xe2c
                0x000233c4                __bss_start = ABSOLUTE (.)
                0x000233c4                PROVIDE (__sbss_start, ABSOLUTE (.))
                0x000233c4                PROVIDE (___sbss_start, ABSOLUTE (.))
 *(.dynsbss)
 *(.sbss .sbss.* .gnu.linkonce.sb.*)
 .sbss          0x000233c4        0x8 obj/default/mmcfs/fatfs/ff.o
 .sbss          0x000233cc        0x1 obj/default/mmcfs/fatfs/mmcbb.o
 *fill*         0x000233cd        0x3 
 .sbss          0x000233d0        0x8 obj/default/mmcfs/mmc_spi.o
 .sbss          0x000233d8        0xc obj/default/mmcfs/mmcfs.o
 .sbss          0x000233e4        0x4 obj/default/nd_lib/nd_acm.o
 .sbss          0x000233e8       0x14 obj/default/nd_lib/nd_egl.o
 .sbss          0x000233fc        0x4 obj/default/nd_lib/nd_egl.o
                0x000233fc                nd_GsEglDrawBuffer
 .sbss          0x00023400        0xc c:/develop/altera/13.1/nios2eds/bin/gnu/h-i686-mingw32/bin/../lib/gcc/nios2-elf/4.7.3/../../../../../H-i686-mingw32/nios2-elf/lib\libc.a(lib_a-mallocr.o)
                0x00023400                __malloc_max_total_mem
                0x00023404                __malloc_max_sbrked_mem
                0x00023408                __malloc_top_pad
 .sbss          0x0002340c        0x4 c:/develop/altera/13.1/nios2eds/bin/gnu/h-i686-mingw32/bin/../lib/gcc/nios2-elf/4.7.3/../../../../../H-i686-mingw32/nios2-elf/lib\libc.a(lib_a-int_errno.o)
                0x0002340c                errno
 .sbss          0x00023410        0xc c:/develop/altera/13.1/nios2eds/bin/gnu/h-i686-mingw32/bin/../lib/gcc/nios2-elf/4.7.3/../../../../../H-i686-mingw32/nios2-elf/lib\libc.a(lib_a-locale.o)
                0x00023410                _PathLocale
                0x00023414                __mlocale_changed
                0x00023418                __nlocale_changed
 .sbss          0x0002341c        0xc ../lcdunit_ckplay_bsp/\libhal_bsp.a(alt_main.o)
                0x0002341c                alt_envp
                0x00023420                alt_argv
                0x00023424                alt_argc
 .sbss          0x00023428        0x8 ../lcdunit_ckplay_bsp/\libhal_bsp.a(alt_tick.o)
                0x00023428                _alt_nticks
                0x0002342c                _alt_tick_rate
 .sbss          0x00023430        0x4 ../lcdunit_ckplay_bsp/\libhal_bsp.a(alt_irq_vars.o)
                0x00023430                alt_irq_active
 *(.sbss2 .sbss2.* .gnu.linkonce.sb2.*)
 *(.scommon)
                0x00023434                PROVIDE (__sbss_end, ABSOLUTE (.))
                0x00023434                PROVIDE (___sbss_end, ABSOLUTE (.))
 *(.dynbss)
 *(.bss .bss.* .gnu.linkonce.b.*)
 .bss           0x00023434        0x0 ../lcdunit_ckplay_bsp//obj/HAL/src/crt0.o
 .bss           0x00023434      0x274 obj/default/ckplay.o
 .bss           0x000236a8      0x200 obj/default/mmcfs/fatfs/ff.o
 .bss           0x000238a8        0x0 obj/default/mmcfs/fatfs/mmcbb.o
 .bss           0x000238a8        0x0 obj/default/mmcfs/fatfs/option/cc932.o
 .bss           0x000238a8        0x0 obj/default/mmcfs/gettime.o
 .bss           0x000238a8        0x0 obj/default/mmcfs/mmc_spi.o
 .bss           0x000238a8      0x678 obj/default/mmcfs/mmcfs.o
 .bss           0x00023f20        0x0 obj/default/nd_lib/ILI9325.o
 .bss           0x00023f20       0x18 obj/default/nd_lib/nd_acm.o
 .bss           0x00023f38        0x0 obj/default/nd_lib/nd_egl.o
 .bss           0x00023f38        0x0 obj/default/nd_lib/nd_acm_mcudecode.o
 .bss           0x00023f38        0x0 c:/develop/altera/13.1/nios2eds/bin/gnu/h-i686-mingw32/bin/../lib/gcc/nios2-elf/4.7.3\libgcc.a(lib2-divmod.o)
 .bss           0x00023f38        0x0 c:/develop/altera/13.1/nios2eds/bin/gnu/h-i686-mingw32/bin/../lib/gcc/nios2-elf/4.7.3/../../../../../H-i686-mingw32/nios2-elf/lib\libc.a(lib_a-malloc.o)
 .bss           0x00023f38       0x28 c:/develop/altera/13.1/nios2eds/bin/gnu/h-i686-mingw32/bin/../lib/gcc/nios2-elf/4.7.3/../../../../../H-i686-mingw32/nios2-elf/lib\libc.a(lib_a-mallocr.o)
                0x00023f38                __malloc_current_mallinfo
 .bss           0x00023f60        0x0 c:/develop/altera/13.1/nios2eds/bin/gnu/h-i686-mingw32/bin/../lib/gcc/nios2-elf/4.7.3/../../../../../H-i686-mingw32/nios2-elf/lib\libc.a(lib_a-memcpy.o)
 .bss           0x00023f60        0x0 c:/develop/altera/13.1/nios2eds/bin/gnu/h-i686-mingw32/bin/../lib/gcc/nios2-elf/4.7.3/../../../../../H-i686-mingw32/nios2-elf/lib\libc.a(lib_a-memset.o)
 .bss           0x00023f60        0x0 c:/develop/altera/13.1/nios2eds/bin/gnu/h-i686-mingw32/bin/../lib/gcc/nios2-elf/4.7.3/../../../../../H-i686-mingw32/nios2-elf/lib\libc.a(lib_a-printf.o)
 .bss           0x00023f60        0x0 c:/develop/altera/13.1/nios2eds/bin/gnu/h-i686-mingw32/bin/../lib/gcc/nios2-elf/4.7.3/../../../../../H-i686-mingw32/nios2-elf/lib\libc.a(lib_a-putchar.o)
 .bss           0x00023f60        0x0 c:/develop/altera/13.1/nios2eds/bin/gnu/h-i686-mingw32/bin/../lib/gcc/nios2-elf/4.7.3/../../../../../H-i686-mingw32/nios2-elf/lib\libc.a(lib_a-puts.o)
 .bss           0x00023f60        0x0 c:/develop/altera/13.1/nios2eds/bin/gnu/h-i686-mingw32/bin/../lib/gcc/nios2-elf/4.7.3/../../../../../H-i686-mingw32/nios2-elf/lib\libc.a(lib_a-sbrkr.o)
 .bss           0x00023f60        0x0 c:/develop/altera/13.1/nios2eds/bin/gnu/h-i686-mingw32/bin/../lib/gcc/nios2-elf/4.7.3/../../../../../H-i686-mingw32/nios2-elf/lib\libc.a(lib_a-strcpy.o)
 .bss           0x00023f60        0x0 c:/develop/altera/13.1/nios2eds/bin/gnu/h-i686-mingw32/bin/../lib/gcc/nios2-elf/4.7.3/../../../../../H-i686-mingw32/nios2-elf/lib\libc.a(lib_a-strlen.o)
 .bss           0x00023f60        0x0 c:/develop/altera/13.1/nios2eds/bin/gnu/h-i686-mingw32/bin/../lib/gcc/nios2-elf/4.7.3/../../../../../H-i686-mingw32/nios2-elf/lib\libc.a(lib_a-vfprintf.o)
 .bss           0x00023f60        0x0 c:/develop/altera/13.1/nios2eds/bin/gnu/h-i686-mingw32/bin/../lib/gcc/nios2-elf/4.7.3/../../../../../H-i686-mingw32/nios2-elf/lib\libc.a(lib_a-wsetup.o)
 .bss           0x00023f60        0x0 c:/develop/altera/13.1/nios2eds/bin/gnu/h-i686-mingw32/bin/../lib/gcc/nios2-elf/4.7.3/../../../../../H-i686-mingw32/nios2-elf/lib\libc.a(lib_a-dtoa.o)
 .bss           0x00023f60        0x0 c:/develop/altera/13.1/nios2eds/bin/gnu/h-i686-mingw32/bin/../lib/gcc/nios2-elf/4.7.3/../../../../../H-i686-mingw32/nios2-elf/lib\libc.a(lib_a-fflush.o)
 .bss           0x00023f60        0x0 c:/develop/altera/13.1/nios2eds/bin/gnu/h-i686-mingw32/bin/../lib/gcc/nios2-elf/4.7.3/../../../../../H-i686-mingw32/nios2-elf/lib\libc.a(lib_a-findfp.o)
 .bss           0x00023f60        0x0 c:/develop/altera/13.1/nios2eds/bin/gnu/h-i686-mingw32/bin/../lib/gcc/nios2-elf/4.7.3/../../../../../H-i686-mingw32/nios2-elf/lib\libc.a(lib_a-freer.o)
 .bss           0x00023f60        0x0 c:/develop/altera/13.1/nios2eds/bin/gnu/h-i686-mingw32/bin/../lib/gcc/nios2-elf/4.7.3/../../../../../H-i686-mingw32/nios2-elf/lib\libc.a(lib_a-fvwrite.o)
 .bss           0x00023f60        0x0 c:/develop/altera/13.1/nios2eds/bin/gnu/h-i686-mingw32/bin/../lib/gcc/nios2-elf/4.7.3/../../../../../H-i686-mingw32/nios2-elf/lib\libc.a(lib_a-fwalk.o)
 .bss           0x00023f60        0x0 c:/develop/altera/13.1/nios2eds/bin/gnu/h-i686-mingw32/bin/../lib/gcc/nios2-elf/4.7.3/../../../../../H-i686-mingw32/nios2-elf/lib\libc.a(lib_a-impure.o)
 .bss           0x00023f60        0x0 c:/develop/altera/13.1/nios2eds/bin/gnu/h-i686-mingw32/bin/../lib/gcc/nios2-elf/4.7.3/../../../../../H-i686-mingw32/nios2-elf/lib\libc.a(lib_a-int_errno.o)
 .bss           0x00023f60        0x0 c:/develop/altera/13.1/nios2eds/bin/gnu/h-i686-mingw32/bin/../lib/gcc/nios2-elf/4.7.3/../../../../../H-i686-mingw32/nios2-elf/lib\libc.a(lib_a-locale.o)
 .bss           0x00023f60        0x0 c:/develop/altera/13.1/nios2eds/bin/gnu/h-i686-mingw32/bin/../lib/gcc/nios2-elf/4.7.3/../../../../../H-i686-mingw32/nios2-elf/lib\libc.a(lib_a-makebuf.o)
 .bss           0x00023f60        0x0 c:/develop/altera/13.1/nios2eds/bin/gnu/h-i686-mingw32/bin/../lib/gcc/nios2-elf/4.7.3/../../../../../H-i686-mingw32/nios2-elf/lib\libc.a(lib_a-memchr.o)
 .bss           0x00023f60        0x0 c:/develop/altera/13.1/nios2eds/bin/gnu/h-i686-mingw32/bin/../lib/gcc/nios2-elf/4.7.3/../../../../../H-i686-mingw32/nios2-elf/lib\libc.a(lib_a-memmove.o)
 .bss           0x00023f60        0x0 c:/develop/altera/13.1/nios2eds/bin/gnu/h-i686-mingw32/bin/../lib/gcc/nios2-elf/4.7.3/../../../../../H-i686-mingw32/nios2-elf/lib\libc.a(lib_a-mprec.o)
 .bss           0x00023f60        0x0 c:/develop/altera/13.1/nios2eds/bin/gnu/h-i686-mingw32/bin/../lib/gcc/nios2-elf/4.7.3/../../../../../H-i686-mingw32/nios2-elf/lib\libc.a(lib_a-putc.o)
 .bss           0x00023f60        0x0 c:/develop/altera/13.1/nios2eds/bin/gnu/h-i686-mingw32/bin/../lib/gcc/nios2-elf/4.7.3/../../../../../H-i686-mingw32/nios2-elf/lib\libc.a(lib_a-reallocr.o)
 .bss           0x00023f60        0x0 c:/develop/altera/13.1/nios2eds/bin/gnu/h-i686-mingw32/bin/../lib/gcc/nios2-elf/4.7.3/../../../../../H-i686-mingw32/nios2-elf/lib\libc.a(lib_a-s_isinfd.o)
 .bss           0x00023f60        0x0 c:/develop/altera/13.1/nios2eds/bin/gnu/h-i686-mingw32/bin/../lib/gcc/nios2-elf/4.7.3/../../../../../H-i686-mingw32/nios2-elf/lib\libc.a(lib_a-s_isnand.o)
 .bss           0x00023f60        0x0 c:/develop/altera/13.1/nios2eds/bin/gnu/h-i686-mingw32/bin/../lib/gcc/nios2-elf/4.7.3/../../../../../H-i686-mingw32/nios2-elf/lib\libc.a(lib_a-stdio.o)
 .bss           0x00023f60        0x0 c:/develop/altera/13.1/nios2eds/bin/gnu/h-i686-mingw32/bin/../lib/gcc/nios2-elf/4.7.3/../../../../../H-i686-mingw32/nios2-elf/lib\libc.a(lib_a-strcmp.o)
 .bss           0x00023f60        0x0 c:/develop/altera/13.1/nios2eds/bin/gnu/h-i686-mingw32/bin/../lib/gcc/nios2-elf/4.7.3/../../../../../H-i686-mingw32/nios2-elf/lib\libc.a(lib_a-wbuf.o)
 .bss           0x00023f60        0x0 c:/develop/altera/13.1/nios2eds/bin/gnu/h-i686-mingw32/bin/../lib/gcc/nios2-elf/4.7.3/../../../../../H-i686-mingw32/nios2-elf/lib\libc.a(lib_a-writer.o)
 .bss           0x00023f60        0x0 c:/develop/altera/13.1/nios2eds/bin/gnu/h-i686-mingw32/bin/../lib/gcc/nios2-elf/4.7.3/../../../../../H-i686-mingw32/nios2-elf/lib\libc.a(lib_a-callocr.o)
 .bss           0x00023f60        0x0 c:/develop/altera/13.1/nios2eds/bin/gnu/h-i686-mingw32/bin/../lib/gcc/nios2-elf/4.7.3/../../../../../H-i686-mingw32/nios2-elf/lib\libc.a(lib_a-closer.o)
 .bss           0x00023f60        0x0 c:/develop/altera/13.1/nios2eds/bin/gnu/h-i686-mingw32/bin/../lib/gcc/nios2-elf/4.7.3/../../../../../H-i686-mingw32/nios2-elf/lib\libc.a(lib_a-fclose.o)
 .bss           0x00023f60        0x0 c:/develop/altera/13.1/nios2eds/bin/gnu/h-i686-mingw32/bin/../lib/gcc/nios2-elf/4.7.3/../../../../../H-i686-mingw32/nios2-elf/lib\libc.a(lib_a-fstatr.o)
 .bss           0x00023f60        0x0 c:/develop/altera/13.1/nios2eds/bin/gnu/h-i686-mingw32/bin/../lib/gcc/nios2-elf/4.7.3/../../../../../H-i686-mingw32/nios2-elf/lib\libc.a(lib_a-isattyr.o)
 .bss           0x00023f60        0x0 c:/develop/altera/13.1/nios2eds/bin/gnu/h-i686-mingw32/bin/../lib/gcc/nios2-elf/4.7.3/../../../../../H-i686-mingw32/nios2-elf/lib\libc.a(lib_a-lseekr.o)
 .bss           0x00023f60        0x0 c:/develop/altera/13.1/nios2eds/bin/gnu/h-i686-mingw32/bin/../lib/gcc/nios2-elf/4.7.3/../../../../../H-i686-mingw32/nios2-elf/lib\libc.a(lib_a-readr.o)
 .bss           0x00023f60        0x0 c:/develop/altera/13.1/nios2eds/bin/gnu/h-i686-mingw32/bin/../lib/gcc/nios2-elf/4.7.3\libgcc.a(_udivdi3.o)
 .bss           0x00023f60        0x0 c:/develop/altera/13.1/nios2eds/bin/gnu/h-i686-mingw32/bin/../lib/gcc/nios2-elf/4.7.3\libgcc.a(_umoddi3.o)
 .bss           0x00023f60        0x0 c:/develop/altera/13.1/nios2eds/bin/gnu/h-i686-mingw32/bin/../lib/gcc/nios2-elf/4.7.3\libgcc.a(_addsub_df.o)
 .bss           0x00023f60        0x0 c:/develop/altera/13.1/nios2eds/bin/gnu/h-i686-mingw32/bin/../lib/gcc/nios2-elf/4.7.3\libgcc.a(_mul_df.o)
 .bss           0x00023f60        0x0 c:/develop/altera/13.1/nios2eds/bin/gnu/h-i686-mingw32/bin/../lib/gcc/nios2-elf/4.7.3\libgcc.a(_div_df.o)
 .bss           0x00023f60        0x0 c:/develop/altera/13.1/nios2eds/bin/gnu/h-i686-mingw32/bin/../lib/gcc/nios2-elf/4.7.3\libgcc.a(_eq_df.o)
 .bss           0x00023f60        0x0 c:/develop/altera/13.1/nios2eds/bin/gnu/h-i686-mingw32/bin/../lib/gcc/nios2-elf/4.7.3\libgcc.a(_ne_df.o)
 .bss           0x00023f60        0x0 c:/develop/altera/13.1/nios2eds/bin/gnu/h-i686-mingw32/bin/../lib/gcc/nios2-elf/4.7.3\libgcc.a(_gt_df.o)
 .bss           0x00023f60        0x0 c:/develop/altera/13.1/nios2eds/bin/gnu/h-i686-mingw32/bin/../lib/gcc/nios2-elf/4.7.3\libgcc.a(_ge_df.o)
 .bss           0x00023f60        0x0 c:/develop/altera/13.1/nios2eds/bin/gnu/h-i686-mingw32/bin/../lib/gcc/nios2-elf/4.7.3\libgcc.a(_lt_df.o)
 .bss           0x00023f60        0x0 c:/develop/altera/13.1/nios2eds/bin/gnu/h-i686-mingw32/bin/../lib/gcc/nios2-elf/4.7.3\libgcc.a(_si_to_df.o)
 .bss           0x00023f60        0x0 c:/develop/altera/13.1/nios2eds/bin/gnu/h-i686-mingw32/bin/../lib/gcc/nios2-elf/4.7.3\libgcc.a(_df_to_si.o)
 .bss           0x00023f60        0x0 c:/develop/altera/13.1/nios2eds/bin/gnu/h-i686-mingw32/bin/../lib/gcc/nios2-elf/4.7.3\libgcc.a(_thenan_df.o)
 .bss           0x00023f60        0x0 c:/develop/altera/13.1/nios2eds/bin/gnu/h-i686-mingw32/bin/../lib/gcc/nios2-elf/4.7.3\libgcc.a(_usi_to_df.o)
 .bss           0x00023f60        0x0 c:/develop/altera/13.1/nios2eds/bin/gnu/h-i686-mingw32/bin/../lib/gcc/nios2-elf/4.7.3\libgcc.a(_muldi3.o)
 .bss           0x00023f60        0x0 c:/develop/altera/13.1/nios2eds/bin/gnu/h-i686-mingw32/bin/../lib/gcc/nios2-elf/4.7.3\libgcc.a(_clz.o)
 .bss           0x00023f60        0x0 c:/develop/altera/13.1/nios2eds/bin/gnu/h-i686-mingw32/bin/../lib/gcc/nios2-elf/4.7.3\libgcc.a(_clzsi2.o)
 .bss           0x00023f60        0x0 c:/develop/altera/13.1/nios2eds/bin/gnu/h-i686-mingw32/bin/../lib/gcc/nios2-elf/4.7.3\libgcc.a(_pack_df.o)
 .bss           0x00023f60        0x0 c:/develop/altera/13.1/nios2eds/bin/gnu/h-i686-mingw32/bin/../lib/gcc/nios2-elf/4.7.3\libgcc.a(_unpack_df.o)
 .bss           0x00023f60        0x0 c:/develop/altera/13.1/nios2eds/bin/gnu/h-i686-mingw32/bin/../lib/gcc/nios2-elf/4.7.3\libgcc.a(_fpcmp_parts_df.o)
 .bss           0x00023f60        0x0 c:/develop/altera/13.1/nios2eds/bin/gnu/h-i686-mingw32/bin/../lib/gcc/nios2-elf/4.7.3\libgcc.a(_lshrdi3.o)
 .bss           0x00023f60        0x0 c:/develop/altera/13.1/nios2eds/bin/gnu/h-i686-mingw32/bin/../lib/gcc/nios2-elf/4.7.3\libgcc.a(_ashldi3.o)
 .bss           0x00023f60        0x0 ../lcdunit_ckplay_bsp/\libhal_bsp.a(alt_alarm_start.o)
 .bss           0x00023f60        0x0 ../lcdunit_ckplay_bsp/\libhal_bsp.a(alt_close.o)
 .bss           0x00023f60        0x0 ../lcdunit_ckplay_bsp/\libhal_bsp.a(alt_dev.o)
 .bss           0x00023f60        0x0 ../lcdunit_ckplay_bsp/\libhal_bsp.a(alt_errno.o)
 .bss           0x00023f60        0x0 ../lcdunit_ckplay_bsp/\libhal_bsp.a(alt_fs_reg.o)
 .bss           0x00023f60        0x0 ../lcdunit_ckplay_bsp/\libhal_bsp.a(alt_fstat.o)
 .bss           0x00023f60        0x0 ../lcdunit_ckplay_bsp/\libhal_bsp.a(alt_isatty.o)
 .bss           0x00023f60        0x0 ../lcdunit_ckplay_bsp/\libhal_bsp.a(alt_load.o)
 .bss           0x00023f60        0x0 ../lcdunit_ckplay_bsp/\libhal_bsp.a(alt_lseek.o)
 .bss           0x00023f60        0x0 ../lcdunit_ckplay_bsp/\libhal_bsp.a(alt_main.o)
 .bss           0x00023f60        0x0 ../lcdunit_ckplay_bsp/\libhal_bsp.a(alt_malloc_lock.o)
 .bss           0x00023f60        0x0 ../lcdunit_ckplay_bsp/\libhal_bsp.a(alt_read.o)
 .bss           0x00023f60        0x0 ../lcdunit_ckplay_bsp/\libhal_bsp.a(alt_release_fd.o)
 .bss           0x00023f60        0x0 ../lcdunit_ckplay_bsp/\libhal_bsp.a(alt_sbrk.o)
 .bss           0x00023f60        0x0 ../lcdunit_ckplay_bsp/\libhal_bsp.a(alt_tick.o)
 .bss           0x00023f60        0x0 ../lcdunit_ckplay_bsp/\libhal_bsp.a(alt_uncached_free.o)
 .bss           0x00023f60        0x0 ../lcdunit_ckplay_bsp/\libhal_bsp.a(alt_uncached_malloc.o)
 .bss           0x00023f60        0x0 ../lcdunit_ckplay_bsp/\libhal_bsp.a(alt_usleep.o)
 .bss           0x00023f60        0x0 ../lcdunit_ckplay_bsp/\libhal_bsp.a(alt_write.o)
 .bss           0x00023f60        0x0 ../lcdunit_ckplay_bsp/\libhal_bsp.a(alt_sys_init.o)
 .bss           0x00023f60        0x0 ../lcdunit_ckplay_bsp/\libhal_bsp.a(altera_avalon_jtag_uart_fd.o)
 .bss           0x00023f60        0x0 ../lcdunit_ckplay_bsp/\libhal_bsp.a(altera_avalon_jtag_uart_init.o)
 .bss           0x00023f60        0x0 ../lcdunit_ckplay_bsp/\libhal_bsp.a(altera_avalon_jtag_uart_ioctl.o)
 .bss           0x00023f60        0x0 ../lcdunit_ckplay_bsp/\libhal_bsp.a(altera_avalon_jtag_uart_read.o)
 .bss           0x00023f60        0x0 ../lcdunit_ckplay_bsp/\libhal_bsp.a(altera_avalon_jtag_uart_write.o)
 .bss           0x00023f60        0x0 ../lcdunit_ckplay_bsp/\libhal_bsp.a(altera_avalon_timer_sc.o)
 .bss           0x00023f60        0x0 ../lcdunit_ckplay_bsp/\libhal_bsp.a(alt_busy_sleep.o)
 .bss           0x00023f60        0x0 ../lcdunit_ckplay_bsp/\libhal_bsp.a(alt_dcache_flush.o)
 .bss           0x00023f60        0x0 ../lcdunit_ckplay_bsp/\libhal_bsp.a(alt_dcache_flush_all.o)
 .bss           0x00023f60        0x0 ../lcdunit_ckplay_bsp/\libhal_bsp.a(alt_dev_llist_insert.o)
 .bss           0x00023f60        0x0 ../lcdunit_ckplay_bsp/\libhal_bsp.a(alt_do_ctors.o)
 .bss           0x00023f60        0x0 ../lcdunit_ckplay_bsp/\libhal_bsp.a(alt_do_dtors.o)
 .bss           0x00023f60        0x0 ../lcdunit_ckplay_bsp/\libhal_bsp.a(alt_icache_flush_all.o)
 .bss           0x00023f60        0x0 ../lcdunit_ckplay_bsp/\libhal_bsp.a(alt_iic.o)
 .bss           0x00023f60        0x0 ../lcdunit_ckplay_bsp/\libhal_bsp.a(alt_iic_isr_register.o)
 .bss           0x00023f60        0x0 ../lcdunit_ckplay_bsp/\libhal_bsp.a(alt_io_redirect.o)
 .bss           0x00023f60        0x0 ../lcdunit_ckplay_bsp/\libhal_bsp.a(alt_irq_entry.o)
 .bss           0x00023f60        0x0 ../lcdunit_ckplay_bsp/\libhal_bsp.a(alt_irq_handler.o)
 .bss           0x00023f60        0x0 ../lcdunit_ckplay_bsp/\libhal_bsp.a(alt_irq_vars.o)
 .bss           0x00023f60        0x0 ../lcdunit_ckplay_bsp/\libhal_bsp.a(alt_open.o)
 .bss           0x00023f60        0x0 ../lcdunit_ckplay_bsp/\libhal_bsp.a(altera_nios2_qsys_irq.o)
 .bss           0x00023f60        0x0 ../lcdunit_ckplay_bsp/\libhal_bsp.a(alt_exception_entry.o)
 .bss           0x00023f60        0x0 ../lcdunit_ckplay_bsp/\libhal_bsp.a(alt_find_dev.o)
 .bss           0x00023f60        0x0 ../lcdunit_ckplay_bsp/\libhal_bsp.a(alt_find_file.o)
 .bss           0x00023f60        0x0 ../lcdunit_ckplay_bsp/\libhal_bsp.a(alt_get_fd.o)
 .bss           0x00023f60        0x0 ../lcdunit_ckplay_bsp/\libhal_bsp.a(alt_icache_flush.o)
 .bss           0x00023f60        0x0 c:/develop/altera/13.1/nios2eds/bin/gnu/h-i686-mingw32/bin/../lib/gcc/nios2-elf/4.7.3/../../../../../H-i686-mingw32/nios2-elf/lib\libc.a(lib_a-atexit.o)
 .bss           0x00023f60        0x0 c:/develop/altera/13.1/nios2eds/bin/gnu/h-i686-mingw32/bin/../lib/gcc/nios2-elf/4.7.3/../../../../../H-i686-mingw32/nios2-elf/lib\libc.a(lib_a-exit.o)
 .bss           0x00023f60        0x0 c:/develop/altera/13.1/nios2eds/bin/gnu/h-i686-mingw32/bin/../lib/gcc/nios2-elf/4.7.3/../../../../../H-i686-mingw32/nios2-elf/lib\libc.a(lib_a-memcmp.o)
 .bss           0x00023f60        0x0 c:/develop/altera/13.1/nios2eds/bin/gnu/h-i686-mingw32/bin/../lib/gcc/nios2-elf/4.7.3/../../../../../H-i686-mingw32/nios2-elf/lib\libc.a(lib_a-__atexit.o)
 .bss           0x00023f60        0x0 c:/develop/altera/13.1/nios2eds/bin/gnu/h-i686-mingw32/bin/../lib/gcc/nios2-elf/4.7.3/../../../../../H-i686-mingw32/nios2-elf/lib\libc.a(lib_a-__call_atexit.o)
 .bss           0x00023f60        0x0 ../lcdunit_ckplay_bsp/\libhal_bsp.a(alt_exit.o)
 *(COMMON)
 COMMON         0x00023f60      0x100 ../lcdunit_ckplay_bsp/\libhal_bsp.a(alt_irq_handler.o)
                0x00023f60                alt_irq
 COMMON         0x00024060      0x190 c:/develop/altera/13.1/nios2eds/bin/gnu/h-i686-mingw32/bin/../lib/gcc/nios2-elf/4.7.3/../../../../../H-i686-mingw32/nios2-elf/lib\libc.a(lib_a-atexit.o)
                0x00024060                _atexit0
                0x000241f0                . = ALIGN (0x4)
                0x000241f0                __bss_end = ABSOLUTE (.)

.sdram          0x000241f0        0x0
                0x000241f0                PROVIDE (_alt_partition_sdram_start, ABSOLUTE (.))
 *(.sdram .sdram. sdram.*)
                0x000241f0                . = ALIGN (0x4)
                0x000241f0                PROVIDE (_alt_partition_sdram_end, ABSOLUTE (.))
                0x000241f0                _end = ABSOLUTE (.)
                0x000241f0                end = ABSOLUTE (.)
                0x000241f0                __alt_stack_base = ABSOLUTE (.)
                0x000241f0                PROVIDE (_alt_partition_sdram_load_addr, LOADADDR (.sdram))

.ipl_memory     0x0f000020        0x0
                0x0f000020                PROVIDE (_alt_partition_ipl_memory_start, ABSOLUTE (.))
 *(.ipl_memory .ipl_memory. ipl_memory.*)
                0x0f000020                . = ALIGN (0x4)
                0x0f000020                PROVIDE (_alt_partition_ipl_memory_end, ABSOLUTE (.))
                0x0f000020                PROVIDE (_alt_partition_ipl_memory_load_addr, LOADADDR (.ipl_memory))

.stab
 *(.stab)

.stabstr
 *(.stabstr)

.stab.excl
 *(.stab.excl)

.stab.exclstr
 *(.stab.exclstr)

.stab.index
 *(.stab.index)

.stab.indexstr
 *(.stab.indexstr)

.comment        0x00000000       0x23
 *(.comment)
 .comment       0x00000000       0x23 obj/default/ckplay.o
                                 0x24 (size before relaxing)
 .comment       0x00000000       0x24 obj/default/mmcfs/fatfs/ff.o
 .comment       0x00000000       0x24 obj/default/mmcfs/fatfs/mmcbb.o
 .comment       0x00000000       0x24 obj/default/mmcfs/fatfs/option/cc932.o
 .comment       0x00000000       0x24 obj/default/mmcfs/gettime.o
 .comment       0x00000000       0x24 obj/default/mmcfs/mmc_spi.o
 .comment       0x00000000       0x24 obj/default/mmcfs/mmcfs.o
 .comment       0x00000000       0x24 obj/default/nd_lib/ILI9325.o
 .comment       0x00000000       0x24 obj/default/nd_lib/nd_acm.o
 .comment       0x00000000       0x24 obj/default/nd_lib/nd_egl.o
 .comment       0x00000000       0x24 c:/develop/altera/13.1/nios2eds/bin/gnu/h-i686-mingw32/bin/../lib/gcc/nios2-elf/4.7.3\libgcc.a(lib2-divmod.o)
 .comment       0x00000000       0x24 c:/develop/altera/13.1/nios2eds/bin/gnu/h-i686-mingw32/bin/../lib/gcc/nios2-elf/4.7.3/../../../../../H-i686-mingw32/nios2-elf/lib\libc.a(lib_a-malloc.o)
 .comment       0x00000000       0x24 c:/develop/altera/13.1/nios2eds/bin/gnu/h-i686-mingw32/bin/../lib/gcc/nios2-elf/4.7.3/../../../../../H-i686-mingw32/nios2-elf/lib\libc.a(lib_a-mallocr.o)
 .comment       0x00000000       0x24 c:/develop/altera/13.1/nios2eds/bin/gnu/h-i686-mingw32/bin/../lib/gcc/nios2-elf/4.7.3/../../../../../H-i686-mingw32/nios2-elf/lib\libc.a(lib_a-memcpy.o)
 .comment       0x00000000       0x24 c:/develop/altera/13.1/nios2eds/bin/gnu/h-i686-mingw32/bin/../lib/gcc/nios2-elf/4.7.3/../../../../../H-i686-mingw32/nios2-elf/lib\libc.a(lib_a-memset.o)
 .comment       0x00000000       0x24 c:/develop/altera/13.1/nios2eds/bin/gnu/h-i686-mingw32/bin/../lib/gcc/nios2-elf/4.7.3/../../../../../H-i686-mingw32/nios2-elf/lib\libc.a(lib_a-printf.o)
 .comment       0x00000000       0x24 c:/develop/altera/13.1/nios2eds/bin/gnu/h-i686-mingw32/bin/../lib/gcc/nios2-elf/4.7.3/../../../../../H-i686-mingw32/nios2-elf/lib\libc.a(lib_a-putchar.o)
 .comment       0x00000000       0x24 c:/develop/altera/13.1/nios2eds/bin/gnu/h-i686-mingw32/bin/../lib/gcc/nios2-elf/4.7.3/../../../../../H-i686-mingw32/nios2-elf/lib\libc.a(lib_a-puts.o)
 .comment       0x00000000       0x24 c:/develop/altera/13.1/nios2eds/bin/gnu/h-i686-mingw32/bin/../lib/gcc/nios2-elf/4.7.3/../../../../../H-i686-mingw32/nios2-elf/lib\libc.a(lib_a-sbrkr.o)
 .comment       0x00000000       0x24 c:/develop/altera/13.1/nios2eds/bin/gnu/h-i686-mingw32/bin/../lib/gcc/nios2-elf/4.7.3/../../../../../H-i686-mingw32/nios2-elf/lib\libc.a(lib_a-strcpy.o)
 .comment       0x00000000       0x24 c:/develop/altera/13.1/nios2eds/bin/gnu/h-i686-mingw32/bin/../lib/gcc/nios2-elf/4.7.3/../../../../../H-i686-mingw32/nios2-elf/lib\libc.a(lib_a-strlen.o)
 .comment       0x00000000       0x24 c:/develop/altera/13.1/nios2eds/bin/gnu/h-i686-mingw32/bin/../lib/gcc/nios2-elf/4.7.3/../../../../../H-i686-mingw32/nios2-elf/lib\libc.a(lib_a-vfprintf.o)
 .comment       0x00000000       0x24 c:/develop/altera/13.1/nios2eds/bin/gnu/h-i686-mingw32/bin/../lib/gcc/nios2-elf/4.7.3/../../../../../H-i686-mingw32/nios2-elf/lib\libc.a(lib_a-wsetup.o)
 .comment       0x00000000       0x24 c:/develop/altera/13.1/nios2eds/bin/gnu/h-i686-mingw32/bin/../lib/gcc/nios2-elf/4.7.3/../../../../../H-i686-mingw32/nios2-elf/lib\libc.a(lib_a-dtoa.o)
 .comment       0x00000000       0x24 c:/develop/altera/13.1/nios2eds/bin/gnu/h-i686-mingw32/bin/../lib/gcc/nios2-elf/4.7.3/../../../../../H-i686-mingw32/nios2-elf/lib\libc.a(lib_a-fflush.o)
 .comment       0x00000000       0x24 c:/develop/altera/13.1/nios2eds/bin/gnu/h-i686-mingw32/bin/../lib/gcc/nios2-elf/4.7.3/../../../../../H-i686-mingw32/nios2-elf/lib\libc.a(lib_a-findfp.o)
 .comment       0x00000000       0x24 c:/develop/altera/13.1/nios2eds/bin/gnu/h-i686-mingw32/bin/../lib/gcc/nios2-elf/4.7.3/../../../../../H-i686-mingw32/nios2-elf/lib\libc.a(lib_a-freer.o)
 .comment       0x00000000       0x24 c:/develop/altera/13.1/nios2eds/bin/gnu/h-i686-mingw32/bin/../lib/gcc/nios2-elf/4.7.3/../../../../../H-i686-mingw32/nios2-elf/lib\libc.a(lib_a-fvwrite.o)
 .comment       0x00000000       0x24 c:/develop/altera/13.1/nios2eds/bin/gnu/h-i686-mingw32/bin/../lib/gcc/nios2-elf/4.7.3/../../../../../H-i686-mingw32/nios2-elf/lib\libc.a(lib_a-fwalk.o)
 .comment       0x00000000       0x24 c:/develop/altera/13.1/nios2eds/bin/gnu/h-i686-mingw32/bin/../lib/gcc/nios2-elf/4.7.3/../../../../../H-i686-mingw32/nios2-elf/lib\libc.a(lib_a-impure.o)
 .comment       0x00000000       0x24 c:/develop/altera/13.1/nios2eds/bin/gnu/h-i686-mingw32/bin/../lib/gcc/nios2-elf/4.7.3/../../../../../H-i686-mingw32/nios2-elf/lib\libc.a(lib_a-int_errno.o)
 .comment       0x00000000       0x24 c:/develop/altera/13.1/nios2eds/bin/gnu/h-i686-mingw32/bin/../lib/gcc/nios2-elf/4.7.3/../../../../../H-i686-mingw32/nios2-elf/lib\libc.a(lib_a-locale.o)
 .comment       0x00000000       0x24 c:/develop/altera/13.1/nios2eds/bin/gnu/h-i686-mingw32/bin/../lib/gcc/nios2-elf/4.7.3/../../../../../H-i686-mingw32/nios2-elf/lib\libc.a(lib_a-makebuf.o)
 .comment       0x00000000       0x24 c:/develop/altera/13.1/nios2eds/bin/gnu/h-i686-mingw32/bin/../lib/gcc/nios2-elf/4.7.3/../../../../../H-i686-mingw32/nios2-elf/lib\libc.a(lib_a-memchr.o)
 .comment       0x00000000       0x24 c:/develop/altera/13.1/nios2eds/bin/gnu/h-i686-mingw32/bin/../lib/gcc/nios2-elf/4.7.3/../../../../../H-i686-mingw32/nios2-elf/lib\libc.a(lib_a-memmove.o)
 .comment       0x00000000       0x24 c:/develop/altera/13.1/nios2eds/bin/gnu/h-i686-mingw32/bin/../lib/gcc/nios2-elf/4.7.3/../../../../../H-i686-mingw32/nios2-elf/lib\libc.a(lib_a-mprec.o)
 .comment       0x00000000       0x24 c:/develop/altera/13.1/nios2eds/bin/gnu/h-i686-mingw32/bin/../lib/gcc/nios2-elf/4.7.3/../../../../../H-i686-mingw32/nios2-elf/lib\libc.a(lib_a-putc.o)
 .comment       0x00000000       0x24 c:/develop/altera/13.1/nios2eds/bin/gnu/h-i686-mingw32/bin/../lib/gcc/nios2-elf/4.7.3/../../../../../H-i686-mingw32/nios2-elf/lib\libc.a(lib_a-reallocr.o)
 .comment       0x00000000       0x24 c:/develop/altera/13.1/nios2eds/bin/gnu/h-i686-mingw32/bin/../lib/gcc/nios2-elf/4.7.3/../../../../../H-i686-mingw32/nios2-elf/lib\libc.a(lib_a-s_isinfd.o)
 .comment       0x00000000       0x24 c:/develop/altera/13.1/nios2eds/bin/gnu/h-i686-mingw32/bin/../lib/gcc/nios2-elf/4.7.3/../../../../../H-i686-mingw32/nios2-elf/lib\libc.a(lib_a-s_isnand.o)
 .comment       0x00000000       0x24 c:/develop/altera/13.1/nios2eds/bin/gnu/h-i686-mingw32/bin/../lib/gcc/nios2-elf/4.7.3/../../../../../H-i686-mingw32/nios2-elf/lib\libc.a(lib_a-stdio.o)
 .comment       0x00000000       0x24 c:/develop/altera/13.1/nios2eds/bin/gnu/h-i686-mingw32/bin/../lib/gcc/nios2-elf/4.7.3/../../../../../H-i686-mingw32/nios2-elf/lib\libc.a(lib_a-strcmp.o)
 .comment       0x00000000       0x24 c:/develop/altera/13.1/nios2eds/bin/gnu/h-i686-mingw32/bin/../lib/gcc/nios2-elf/4.7.3/../../../../../H-i686-mingw32/nios2-elf/lib\libc.a(lib_a-wbuf.o)
 .comment       0x00000000       0x24 c:/develop/altera/13.1/nios2eds/bin/gnu/h-i686-mingw32/bin/../lib/gcc/nios2-elf/4.7.3/../../../../../H-i686-mingw32/nios2-elf/lib\libc.a(lib_a-writer.o)
 .comment       0x00000000       0x24 c:/develop/altera/13.1/nios2eds/bin/gnu/h-i686-mingw32/bin/../lib/gcc/nios2-elf/4.7.3/../../../../../H-i686-mingw32/nios2-elf/lib\libc.a(lib_a-callocr.o)
 .comment       0x00000000       0x24 c:/develop/altera/13.1/nios2eds/bin/gnu/h-i686-mingw32/bin/../lib/gcc/nios2-elf/4.7.3/../../../../../H-i686-mingw32/nios2-elf/lib\libc.a(lib_a-closer.o)
 .comment       0x00000000       0x24 c:/develop/altera/13.1/nios2eds/bin/gnu/h-i686-mingw32/bin/../lib/gcc/nios2-elf/4.7.3/../../../../../H-i686-mingw32/nios2-elf/lib\libc.a(lib_a-fclose.o)
 .comment       0x00000000       0x24 c:/develop/altera/13.1/nios2eds/bin/gnu/h-i686-mingw32/bin/../lib/gcc/nios2-elf/4.7.3/../../../../../H-i686-mingw32/nios2-elf/lib\libc.a(lib_a-fstatr.o)
 .comment       0x00000000       0x24 c:/develop/altera/13.1/nios2eds/bin/gnu/h-i686-mingw32/bin/../lib/gcc/nios2-elf/4.7.3/../../../../../H-i686-mingw32/nios2-elf/lib\libc.a(lib_a-isattyr.o)
 .comment       0x00000000       0x24 c:/develop/altera/13.1/nios2eds/bin/gnu/h-i686-mingw32/bin/../lib/gcc/nios2-elf/4.7.3/../../../../../H-i686-mingw32/nios2-elf/lib\libc.a(lib_a-lseekr.o)
 .comment       0x00000000       0x24 c:/develop/altera/13.1/nios2eds/bin/gnu/h-i686-mingw32/bin/../lib/gcc/nios2-elf/4.7.3/../../../../../H-i686-mingw32/nios2-elf/lib\libc.a(lib_a-readr.o)
 .comment       0x00000000       0x24 c:/develop/altera/13.1/nios2eds/bin/gnu/h-i686-mingw32/bin/../lib/gcc/nios2-elf/4.7.3\libgcc.a(_udivdi3.o)
 .comment       0x00000000       0x24 c:/develop/altera/13.1/nios2eds/bin/gnu/h-i686-mingw32/bin/../lib/gcc/nios2-elf/4.7.3\libgcc.a(_umoddi3.o)
 .comment       0x00000000       0x24 c:/develop/altera/13.1/nios2eds/bin/gnu/h-i686-mingw32/bin/../lib/gcc/nios2-elf/4.7.3\libgcc.a(_addsub_df.o)
 .comment       0x00000000       0x24 c:/develop/altera/13.1/nios2eds/bin/gnu/h-i686-mingw32/bin/../lib/gcc/nios2-elf/4.7.3\libgcc.a(_mul_df.o)
 .comment       0x00000000       0x24 c:/develop/altera/13.1/nios2eds/bin/gnu/h-i686-mingw32/bin/../lib/gcc/nios2-elf/4.7.3\libgcc.a(_div_df.o)
 .comment       0x00000000       0x24 c:/develop/altera/13.1/nios2eds/bin/gnu/h-i686-mingw32/bin/../lib/gcc/nios2-elf/4.7.3\libgcc.a(_eq_df.o)
 .comment       0x00000000       0x24 c:/develop/altera/13.1/nios2eds/bin/gnu/h-i686-mingw32/bin/../lib/gcc/nios2-elf/4.7.3\libgcc.a(_ne_df.o)
 .comment       0x00000000       0x24 c:/develop/altera/13.1/nios2eds/bin/gnu/h-i686-mingw32/bin/../lib/gcc/nios2-elf/4.7.3\libgcc.a(_gt_df.o)
 .comment       0x00000000       0x24 c:/develop/altera/13.1/nios2eds/bin/gnu/h-i686-mingw32/bin/../lib/gcc/nios2-elf/4.7.3\libgcc.a(_ge_df.o)
 .comment       0x00000000       0x24 c:/develop/altera/13.1/nios2eds/bin/gnu/h-i686-mingw32/bin/../lib/gcc/nios2-elf/4.7.3\libgcc.a(_lt_df.o)
 .comment       0x00000000       0x24 c:/develop/altera/13.1/nios2eds/bin/gnu/h-i686-mingw32/bin/../lib/gcc/nios2-elf/4.7.3\libgcc.a(_si_to_df.o)
 .comment       0x00000000       0x24 c:/develop/altera/13.1/nios2eds/bin/gnu/h-i686-mingw32/bin/../lib/gcc/nios2-elf/4.7.3\libgcc.a(_df_to_si.o)
 .comment       0x00000000       0x24 c:/develop/altera/13.1/nios2eds/bin/gnu/h-i686-mingw32/bin/../lib/gcc/nios2-elf/4.7.3\libgcc.a(_thenan_df.o)
 .comment       0x00000000       0x24 c:/develop/altera/13.1/nios2eds/bin/gnu/h-i686-mingw32/bin/../lib/gcc/nios2-elf/4.7.3\libgcc.a(_usi_to_df.o)
 .comment       0x00000000       0x24 c:/develop/altera/13.1/nios2eds/bin/gnu/h-i686-mingw32/bin/../lib/gcc/nios2-elf/4.7.3\libgcc.a(_muldi3.o)
 .comment       0x00000000       0x24 c:/develop/altera/13.1/nios2eds/bin/gnu/h-i686-mingw32/bin/../lib/gcc/nios2-elf/4.7.3\libgcc.a(_clz.o)
 .comment       0x00000000       0x24 c:/develop/altera/13.1/nios2eds/bin/gnu/h-i686-mingw32/bin/../lib/gcc/nios2-elf/4.7.3\libgcc.a(_clzsi2.o)
 .comment       0x00000000       0x24 c:/develop/altera/13.1/nios2eds/bin/gnu/h-i686-mingw32/bin/../lib/gcc/nios2-elf/4.7.3\libgcc.a(_pack_df.o)
 .comment       0x00000000       0x24 c:/develop/altera/13.1/nios2eds/bin/gnu/h-i686-mingw32/bin/../lib/gcc/nios2-elf/4.7.3\libgcc.a(_unpack_df.o)
 .comment       0x00000000       0x24 c:/develop/altera/13.1/nios2eds/bin/gnu/h-i686-mingw32/bin/../lib/gcc/nios2-elf/4.7.3\libgcc.a(_fpcmp_parts_df.o)
 .comment       0x00000000       0x24 c:/develop/altera/13.1/nios2eds/bin/gnu/h-i686-mingw32/bin/../lib/gcc/nios2-elf/4.7.3\libgcc.a(_lshrdi3.o)
 .comment       0x00000000       0x24 c:/develop/altera/13.1/nios2eds/bin/gnu/h-i686-mingw32/bin/../lib/gcc/nios2-elf/4.7.3\libgcc.a(_ashldi3.o)
 .comment       0x00000000       0x24 ../lcdunit_ckplay_bsp/\libhal_bsp.a(alt_alarm_start.o)
 .comment       0x00000000       0x24 ../lcdunit_ckplay_bsp/\libhal_bsp.a(alt_close.o)
 .comment       0x00000000       0x24 ../lcdunit_ckplay_bsp/\libhal_bsp.a(alt_dev.o)
 .comment       0x00000000       0x24 ../lcdunit_ckplay_bsp/\libhal_bsp.a(alt_errno.o)
 .comment       0x00000000       0x24 ../lcdunit_ckplay_bsp/\libhal_bsp.a(alt_fs_reg.o)
 .comment       0x00000000       0x24 ../lcdunit_ckplay_bsp/\libhal_bsp.a(alt_fstat.o)
 .comment       0x00000000       0x24 ../lcdunit_ckplay_bsp/\libhal_bsp.a(alt_isatty.o)
 .comment       0x00000000       0x24 ../lcdunit_ckplay_bsp/\libhal_bsp.a(alt_load.o)
 .comment       0x00000000       0x24 ../lcdunit_ckplay_bsp/\libhal_bsp.a(alt_lseek.o)
 .comment       0x00000000       0x24 ../lcdunit_ckplay_bsp/\libhal_bsp.a(alt_main.o)
 .comment       0x00000000       0x24 ../lcdunit_ckplay_bsp/\libhal_bsp.a(alt_malloc_lock.o)
 .comment       0x00000000       0x24 ../lcdunit_ckplay_bsp/\libhal_bsp.a(alt_read.o)
 .comment       0x00000000       0x24 ../lcdunit_ckplay_bsp/\libhal_bsp.a(alt_release_fd.o)
 .comment       0x00000000       0x24 ../lcdunit_ckplay_bsp/\libhal_bsp.a(alt_sbrk.o)
 .comment       0x00000000       0x24 ../lcdunit_ckplay_bsp/\libhal_bsp.a(alt_tick.o)
 .comment       0x00000000       0x24 ../lcdunit_ckplay_bsp/\libhal_bsp.a(alt_uncached_free.o)
 .comment       0x00000000       0x24 ../lcdunit_ckplay_bsp/\libhal_bsp.a(alt_uncached_malloc.o)
 .comment       0x00000000       0x24 ../lcdunit_ckplay_bsp/\libhal_bsp.a(alt_usleep.o)
 .comment       0x00000000       0x24 ../lcdunit_ckplay_bsp/\libhal_bsp.a(alt_write.o)
 .comment       0x00000000       0x24 ../lcdunit_ckplay_bsp/\libhal_bsp.a(alt_sys_init.o)
 .comment       0x00000000       0x24 ../lcdunit_ckplay_bsp/\libhal_bsp.a(altera_avalon_jtag_uart_fd.o)
 .comment       0x00000000       0x24 ../lcdunit_ckplay_bsp/\libhal_bsp.a(altera_avalon_jtag_uart_init.o)
 .comment       0x00000000       0x24 ../lcdunit_ckplay_bsp/\libhal_bsp.a(altera_avalon_jtag_uart_ioctl.o)
 .comment       0x00000000       0x24 ../lcdunit_ckplay_bsp/\libhal_bsp.a(altera_avalon_jtag_uart_read.o)
 .comment       0x00000000       0x24 ../lcdunit_ckplay_bsp/\libhal_bsp.a(altera_avalon_jtag_uart_write.o)
 .comment       0x00000000       0x24 ../lcdunit_ckplay_bsp/\libhal_bsp.a(altera_avalon_timer_sc.o)
 .comment       0x00000000       0x24 ../lcdunit_ckplay_bsp/\libhal_bsp.a(alt_busy_sleep.o)
 .comment       0x00000000       0x24 ../lcdunit_ckplay_bsp/\libhal_bsp.a(alt_dcache_flush.o)
 .comment       0x00000000       0x24 ../lcdunit_ckplay_bsp/\libhal_bsp.a(alt_dcache_flush_all.o)
 .comment       0x00000000       0x24 ../lcdunit_ckplay_bsp/\libhal_bsp.a(alt_dev_llist_insert.o)
 .comment       0x00000000       0x24 ../lcdunit_ckplay_bsp/\libhal_bsp.a(alt_do_ctors.o)
 .comment       0x00000000       0x24 ../lcdunit_ckplay_bsp/\libhal_bsp.a(alt_do_dtors.o)
 .comment       0x00000000       0x24 ../lcdunit_ckplay_bsp/\libhal_bsp.a(alt_icache_flush_all.o)
 .comment       0x00000000       0x24 ../lcdunit_ckplay_bsp/\libhal_bsp.a(alt_iic.o)
 .comment       0x00000000       0x24 ../lcdunit_ckplay_bsp/\libhal_bsp.a(alt_iic_isr_register.o)
 .comment       0x00000000       0x24 ../lcdunit_ckplay_bsp/\libhal_bsp.a(alt_io_redirect.o)
 .comment       0x00000000       0x24 ../lcdunit_ckplay_bsp/\libhal_bsp.a(alt_irq_handler.o)
 .comment       0x00000000       0x24 ../lcdunit_ckplay_bsp/\libhal_bsp.a(alt_irq_vars.o)
 .comment       0x00000000       0x24 ../lcdunit_ckplay_bsp/\libhal_bsp.a(alt_open.o)
 .comment       0x00000000       0x24 ../lcdunit_ckplay_bsp/\libhal_bsp.a(altera_nios2_qsys_irq.o)
 .comment       0x00000000       0x24 ../lcdunit_ckplay_bsp/\libhal_bsp.a(alt_find_dev.o)
 .comment       0x00000000       0x24 ../lcdunit_ckplay_bsp/\libhal_bsp.a(alt_find_file.o)
 .comment       0x00000000       0x24 ../lcdunit_ckplay_bsp/\libhal_bsp.a(alt_get_fd.o)
 .comment       0x00000000       0x24 ../lcdunit_ckplay_bsp/\libhal_bsp.a(alt_icache_flush.o)
 .comment       0x00000000       0x24 c:/develop/altera/13.1/nios2eds/bin/gnu/h-i686-mingw32/bin/../lib/gcc/nios2-elf/4.7.3/../../../../../H-i686-mingw32/nios2-elf/lib\libc.a(lib_a-atexit.o)
 .comment       0x00000000       0x24 c:/develop/altera/13.1/nios2eds/bin/gnu/h-i686-mingw32/bin/../lib/gcc/nios2-elf/4.7.3/../../../../../H-i686-mingw32/nios2-elf/lib\libc.a(lib_a-exit.o)
 .comment       0x00000000       0x24 c:/develop/altera/13.1/nios2eds/bin/gnu/h-i686-mingw32/bin/../lib/gcc/nios2-elf/4.7.3/../../../../../H-i686-mingw32/nios2-elf/lib\libc.a(lib_a-memcmp.o)
 .comment       0x00000000       0x24 c:/develop/altera/13.1/nios2eds/bin/gnu/h-i686-mingw32/bin/../lib/gcc/nios2-elf/4.7.3/../../../../../H-i686-mingw32/nios2-elf/lib\libc.a(lib_a-__atexit.o)
 .comment       0x00000000       0x24 c:/develop/altera/13.1/nios2eds/bin/gnu/h-i686-mingw32/bin/../lib/gcc/nios2-elf/4.7.3/../../../../../H-i686-mingw32/nios2-elf/lib\libc.a(lib_a-__call_atexit.o)
 .comment       0x00000000       0x24 ../lcdunit_ckplay_bsp/\libhal_bsp.a(alt_exit.o)

.debug
 *(.debug)

.line
 *(.line)

.debug_srcinfo
 *(.debug_srcinfo)

.debug_sfnames
 *(.debug_sfnames)

.debug_aranges  0x00000000      0xfe0
 *(.debug_aranges)
 .debug_aranges
                0x00000000       0x20 ../lcdunit_ckplay_bsp//obj/HAL/src/crt0.o
 .debug_aranges
                0x00000020       0x28 obj/default/ckplay.o
 .debug_aranges
                0x00000048       0x20 obj/default/mmcfs/fatfs/ff.o
 .debug_aranges
                0x00000068       0x20 obj/default/mmcfs/fatfs/mmcbb.o
 .debug_aranges
                0x00000088       0x20 obj/default/mmcfs/fatfs/option/cc932.o
 .debug_aranges
                0x000000a8       0x20 obj/default/mmcfs/gettime.o
 .debug_aranges
                0x000000c8       0x20 obj/default/mmcfs/mmc_spi.o
 .debug_aranges
                0x000000e8       0x20 obj/default/mmcfs/mmcfs.o
 .debug_aranges
                0x00000108       0x20 obj/default/nd_lib/ILI9325.o
 .debug_aranges
                0x00000128       0x20 obj/default/nd_lib/nd_acm.o
 .debug_aranges
                0x00000148       0x20 obj/default/nd_lib/nd_egl.o
 .debug_aranges
                0x00000168       0x20 obj/default/nd_lib/nd_acm_mcudecode.o
 .debug_aranges
                0x00000188       0x20 c:/develop/altera/13.1/nios2eds/bin/gnu/h-i686-mingw32/bin/../lib/gcc/nios2-elf/4.7.3\libgcc.a(lib2-divmod.o)
 .debug_aranges
                0x000001a8       0x20 c:/develop/altera/13.1/nios2eds/bin/gnu/h-i686-mingw32/bin/../lib/gcc/nios2-elf/4.7.3/../../../../../H-i686-mingw32/nios2-elf/lib\libc.a(lib_a-malloc.o)
 .debug_aranges
                0x000001c8       0x20 c:/develop/altera/13.1/nios2eds/bin/gnu/h-i686-mingw32/bin/../lib/gcc/nios2-elf/4.7.3/../../../../../H-i686-mingw32/nios2-elf/lib\libc.a(lib_a-mallocr.o)
 .debug_aranges
                0x000001e8       0x20 c:/develop/altera/13.1/nios2eds/bin/gnu/h-i686-mingw32/bin/../lib/gcc/nios2-elf/4.7.3/../../../../../H-i686-mingw32/nios2-elf/lib\libc.a(lib_a-memcpy.o)
 .debug_aranges
                0x00000208       0x20 c:/develop/altera/13.1/nios2eds/bin/gnu/h-i686-mingw32/bin/../lib/gcc/nios2-elf/4.7.3/../../../../../H-i686-mingw32/nios2-elf/lib\libc.a(lib_a-memset.o)
 .debug_aranges
                0x00000228       0x20 c:/develop/altera/13.1/nios2eds/bin/gnu/h-i686-mingw32/bin/../lib/gcc/nios2-elf/4.7.3/../../../../../H-i686-mingw32/nios2-elf/lib\libc.a(lib_a-printf.o)
 .debug_aranges
                0x00000248       0x20 c:/develop/altera/13.1/nios2eds/bin/gnu/h-i686-mingw32/bin/../lib/gcc/nios2-elf/4.7.3/../../../../../H-i686-mingw32/nios2-elf/lib\libc.a(lib_a-putchar.o)
 .debug_aranges
                0x00000268       0x20 c:/develop/altera/13.1/nios2eds/bin/gnu/h-i686-mingw32/bin/../lib/gcc/nios2-elf/4.7.3/../../../../../H-i686-mingw32/nios2-elf/lib\libc.a(lib_a-puts.o)
 .debug_aranges
                0x00000288       0x20 c:/develop/altera/13.1/nios2eds/bin/gnu/h-i686-mingw32/bin/../lib/gcc/nios2-elf/4.7.3/../../../../../H-i686-mingw32/nios2-elf/lib\libc.a(lib_a-sbrkr.o)
 .debug_aranges
                0x000002a8       0x20 c:/develop/altera/13.1/nios2eds/bin/gnu/h-i686-mingw32/bin/../lib/gcc/nios2-elf/4.7.3/../../../../../H-i686-mingw32/nios2-elf/lib\libc.a(lib_a-strcpy.o)
 .debug_aranges
                0x000002c8       0x20 c:/develop/altera/13.1/nios2eds/bin/gnu/h-i686-mingw32/bin/../lib/gcc/nios2-elf/4.7.3/../../../../../H-i686-mingw32/nios2-elf/lib\libc.a(lib_a-strlen.o)
 .debug_aranges
                0x000002e8       0x20 c:/develop/altera/13.1/nios2eds/bin/gnu/h-i686-mingw32/bin/../lib/gcc/nios2-elf/4.7.3/../../../../../H-i686-mingw32/nios2-elf/lib\libc.a(lib_a-vfprintf.o)
 .debug_aranges
                0x00000308       0x20 c:/develop/altera/13.1/nios2eds/bin/gnu/h-i686-mingw32/bin/../lib/gcc/nios2-elf/4.7.3/../../../../../H-i686-mingw32/nios2-elf/lib\libc.a(lib_a-wsetup.o)
 .debug_aranges
                0x00000328       0x20 c:/develop/altera/13.1/nios2eds/bin/gnu/h-i686-mingw32/bin/../lib/gcc/nios2-elf/4.7.3/../../../../../H-i686-mingw32/nios2-elf/lib\libc.a(lib_a-dtoa.o)
 .debug_aranges
                0x00000348       0x20 c:/develop/altera/13.1/nios2eds/bin/gnu/h-i686-mingw32/bin/../lib/gcc/nios2-elf/4.7.3/../../../../../H-i686-mingw32/nios2-elf/lib\libc.a(lib_a-fflush.o)
 .debug_aranges
                0x00000368       0x20 c:/develop/altera/13.1/nios2eds/bin/gnu/h-i686-mingw32/bin/../lib/gcc/nios2-elf/4.7.3/../../../../../H-i686-mingw32/nios2-elf/lib\libc.a(lib_a-findfp.o)
 .debug_aranges
                0x00000388       0x20 c:/develop/altera/13.1/nios2eds/bin/gnu/h-i686-mingw32/bin/../lib/gcc/nios2-elf/4.7.3/../../../../../H-i686-mingw32/nios2-elf/lib\libc.a(lib_a-freer.o)
 .debug_aranges
                0x000003a8       0x20 c:/develop/altera/13.1/nios2eds/bin/gnu/h-i686-mingw32/bin/../lib/gcc/nios2-elf/4.7.3/../../../../../H-i686-mingw32/nios2-elf/lib\libc.a(lib_a-fvwrite.o)
 .debug_aranges
                0x000003c8       0x20 c:/develop/altera/13.1/nios2eds/bin/gnu/h-i686-mingw32/bin/../lib/gcc/nios2-elf/4.7.3/../../../../../H-i686-mingw32/nios2-elf/lib\libc.a(lib_a-fwalk.o)
 .debug_aranges
                0x000003e8       0x18 c:/develop/altera/13.1/nios2eds/bin/gnu/h-i686-mingw32/bin/../lib/gcc/nios2-elf/4.7.3/../../../../../H-i686-mingw32/nios2-elf/lib\libc.a(lib_a-impure.o)
 .debug_aranges
                0x00000400       0x18 c:/develop/altera/13.1/nios2eds/bin/gnu/h-i686-mingw32/bin/../lib/gcc/nios2-elf/4.7.3/../../../../../H-i686-mingw32/nios2-elf/lib\libc.a(lib_a-int_errno.o)
 .debug_aranges
                0x00000418       0x20 c:/develop/altera/13.1/nios2eds/bin/gnu/h-i686-mingw32/bin/../lib/gcc/nios2-elf/4.7.3/../../../../../H-i686-mingw32/nios2-elf/lib\libc.a(lib_a-locale.o)
 .debug_aranges
                0x00000438       0x20 c:/develop/altera/13.1/nios2eds/bin/gnu/h-i686-mingw32/bin/../lib/gcc/nios2-elf/4.7.3/../../../../../H-i686-mingw32/nios2-elf/lib\libc.a(lib_a-makebuf.o)
 .debug_aranges
                0x00000458       0x20 c:/develop/altera/13.1/nios2eds/bin/gnu/h-i686-mingw32/bin/../lib/gcc/nios2-elf/4.7.3/../../../../../H-i686-mingw32/nios2-elf/lib\libc.a(lib_a-memchr.o)
 .debug_aranges
                0x00000478       0x20 c:/develop/altera/13.1/nios2eds/bin/gnu/h-i686-mingw32/bin/../lib/gcc/nios2-elf/4.7.3/../../../../../H-i686-mingw32/nios2-elf/lib\libc.a(lib_a-memmove.o)
 .debug_aranges
                0x00000498       0x20 c:/develop/altera/13.1/nios2eds/bin/gnu/h-i686-mingw32/bin/../lib/gcc/nios2-elf/4.7.3/../../../../../H-i686-mingw32/nios2-elf/lib\libc.a(lib_a-mprec.o)
 .debug_aranges
                0x000004b8       0x20 c:/develop/altera/13.1/nios2eds/bin/gnu/h-i686-mingw32/bin/../lib/gcc/nios2-elf/4.7.3/../../../../../H-i686-mingw32/nios2-elf/lib\libc.a(lib_a-putc.o)
 .debug_aranges
                0x000004d8       0x20 c:/develop/altera/13.1/nios2eds/bin/gnu/h-i686-mingw32/bin/../lib/gcc/nios2-elf/4.7.3/../../../../../H-i686-mingw32/nios2-elf/lib\libc.a(lib_a-reallocr.o)
 .debug_aranges
                0x000004f8       0x20 c:/develop/altera/13.1/nios2eds/bin/gnu/h-i686-mingw32/bin/../lib/gcc/nios2-elf/4.7.3/../../../../../H-i686-mingw32/nios2-elf/lib\libc.a(lib_a-s_isinfd.o)
 .debug_aranges
                0x00000518       0x20 c:/develop/altera/13.1/nios2eds/bin/gnu/h-i686-mingw32/bin/../lib/gcc/nios2-elf/4.7.3/../../../../../H-i686-mingw32/nios2-elf/lib\libc.a(lib_a-s_isnand.o)
 .debug_aranges
                0x00000538       0x20 c:/develop/altera/13.1/nios2eds/bin/gnu/h-i686-mingw32/bin/../lib/gcc/nios2-elf/4.7.3/../../../../../H-i686-mingw32/nios2-elf/lib\libc.a(lib_a-stdio.o)
 .debug_aranges
                0x00000558       0x20 c:/develop/altera/13.1/nios2eds/bin/gnu/h-i686-mingw32/bin/../lib/gcc/nios2-elf/4.7.3/../../../../../H-i686-mingw32/nios2-elf/lib\libc.a(lib_a-strcmp.o)
 .debug_aranges
                0x00000578       0x20 c:/develop/altera/13.1/nios2eds/bin/gnu/h-i686-mingw32/bin/../lib/gcc/nios2-elf/4.7.3/../../../../../H-i686-mingw32/nios2-elf/lib\libc.a(lib_a-wbuf.o)
 .debug_aranges
                0x00000598       0x20 c:/develop/altera/13.1/nios2eds/bin/gnu/h-i686-mingw32/bin/../lib/gcc/nios2-elf/4.7.3/../../../../../H-i686-mingw32/nios2-elf/lib\libc.a(lib_a-writer.o)
 .debug_aranges
                0x000005b8       0x20 c:/develop/altera/13.1/nios2eds/bin/gnu/h-i686-mingw32/bin/../lib/gcc/nios2-elf/4.7.3/../../../../../H-i686-mingw32/nios2-elf/lib\libc.a(lib_a-callocr.o)
 .debug_aranges
                0x000005d8       0x20 c:/develop/altera/13.1/nios2eds/bin/gnu/h-i686-mingw32/bin/../lib/gcc/nios2-elf/4.7.3/../../../../../H-i686-mingw32/nios2-elf/lib\libc.a(lib_a-closer.o)
 .debug_aranges
                0x000005f8       0x20 c:/develop/altera/13.1/nios2eds/bin/gnu/h-i686-mingw32/bin/../lib/gcc/nios2-elf/4.7.3/../../../../../H-i686-mingw32/nios2-elf/lib\libc.a(lib_a-fclose.o)
 .debug_aranges
                0x00000618       0x20 c:/develop/altera/13.1/nios2eds/bin/gnu/h-i686-mingw32/bin/../lib/gcc/nios2-elf/4.7.3/../../../../../H-i686-mingw32/nios2-elf/lib\libc.a(lib_a-fstatr.o)
 .debug_aranges
                0x00000638       0x20 c:/develop/altera/13.1/nios2eds/bin/gnu/h-i686-mingw32/bin/../lib/gcc/nios2-elf/4.7.3/../../../../../H-i686-mingw32/nios2-elf/lib\libc.a(lib_a-isattyr.o)
 .debug_aranges
                0x00000658       0x20 c:/develop/altera/13.1/nios2eds/bin/gnu/h-i686-mingw32/bin/../lib/gcc/nios2-elf/4.7.3/../../../../../H-i686-mingw32/nios2-elf/lib\libc.a(lib_a-lseekr.o)
 .debug_aranges
                0x00000678       0x20 c:/develop/altera/13.1/nios2eds/bin/gnu/h-i686-mingw32/bin/../lib/gcc/nios2-elf/4.7.3/../../../../../H-i686-mingw32/nios2-elf/lib\libc.a(lib_a-readr.o)
 .debug_aranges
                0x00000698       0x20 c:/develop/altera/13.1/nios2eds/bin/gnu/h-i686-mingw32/bin/../lib/gcc/nios2-elf/4.7.3\libgcc.a(_udivdi3.o)
 .debug_aranges
                0x000006b8       0x20 c:/develop/altera/13.1/nios2eds/bin/gnu/h-i686-mingw32/bin/../lib/gcc/nios2-elf/4.7.3\libgcc.a(_umoddi3.o)
 .debug_aranges
                0x000006d8       0x20 c:/develop/altera/13.1/nios2eds/bin/gnu/h-i686-mingw32/bin/../lib/gcc/nios2-elf/4.7.3\libgcc.a(_addsub_df.o)
 .debug_aranges
                0x000006f8       0x20 c:/develop/altera/13.1/nios2eds/bin/gnu/h-i686-mingw32/bin/../lib/gcc/nios2-elf/4.7.3\libgcc.a(_mul_df.o)
 .debug_aranges
                0x00000718       0x20 c:/develop/altera/13.1/nios2eds/bin/gnu/h-i686-mingw32/bin/../lib/gcc/nios2-elf/4.7.3\libgcc.a(_div_df.o)
 .debug_aranges
                0x00000738       0x20 c:/develop/altera/13.1/nios2eds/bin/gnu/h-i686-mingw32/bin/../lib/gcc/nios2-elf/4.7.3\libgcc.a(_eq_df.o)
 .debug_aranges
                0x00000758       0x20 c:/develop/altera/13.1/nios2eds/bin/gnu/h-i686-mingw32/bin/../lib/gcc/nios2-elf/4.7.3\libgcc.a(_ne_df.o)
 .debug_aranges
                0x00000778       0x20 c:/develop/altera/13.1/nios2eds/bin/gnu/h-i686-mingw32/bin/../lib/gcc/nios2-elf/4.7.3\libgcc.a(_gt_df.o)
 .debug_aranges
                0x00000798       0x20 c:/develop/altera/13.1/nios2eds/bin/gnu/h-i686-mingw32/bin/../lib/gcc/nios2-elf/4.7.3\libgcc.a(_ge_df.o)
 .debug_aranges
                0x000007b8       0x20 c:/develop/altera/13.1/nios2eds/bin/gnu/h-i686-mingw32/bin/../lib/gcc/nios2-elf/4.7.3\libgcc.a(_lt_df.o)
 .debug_aranges
                0x000007d8       0x20 c:/develop/altera/13.1/nios2eds/bin/gnu/h-i686-mingw32/bin/../lib/gcc/nios2-elf/4.7.3\libgcc.a(_si_to_df.o)
 .debug_aranges
                0x000007f8       0x20 c:/develop/altera/13.1/nios2eds/bin/gnu/h-i686-mingw32/bin/../lib/gcc/nios2-elf/4.7.3\libgcc.a(_df_to_si.o)
 .debug_aranges
                0x00000818       0x18 c:/develop/altera/13.1/nios2eds/bin/gnu/h-i686-mingw32/bin/../lib/gcc/nios2-elf/4.7.3\libgcc.a(_thenan_df.o)
 .debug_aranges
                0x00000830       0x20 c:/develop/altera/13.1/nios2eds/bin/gnu/h-i686-mingw32/bin/../lib/gcc/nios2-elf/4.7.3\libgcc.a(_usi_to_df.o)
 .debug_aranges
                0x00000850       0x20 c:/develop/altera/13.1/nios2eds/bin/gnu/h-i686-mingw32/bin/../lib/gcc/nios2-elf/4.7.3\libgcc.a(_muldi3.o)
 .debug_aranges
                0x00000870       0x18 c:/develop/altera/13.1/nios2eds/bin/gnu/h-i686-mingw32/bin/../lib/gcc/nios2-elf/4.7.3\libgcc.a(_clz.o)
 .debug_aranges
                0x00000888       0x20 c:/develop/altera/13.1/nios2eds/bin/gnu/h-i686-mingw32/bin/../lib/gcc/nios2-elf/4.7.3\libgcc.a(_clzsi2.o)
 .debug_aranges
                0x000008a8       0x20 c:/develop/altera/13.1/nios2eds/bin/gnu/h-i686-mingw32/bin/../lib/gcc/nios2-elf/4.7.3\libgcc.a(_pack_df.o)
 .debug_aranges
                0x000008c8       0x20 c:/develop/altera/13.1/nios2eds/bin/gnu/h-i686-mingw32/bin/../lib/gcc/nios2-elf/4.7.3\libgcc.a(_unpack_df.o)
 .debug_aranges
                0x000008e8       0x20 c:/develop/altera/13.1/nios2eds/bin/gnu/h-i686-mingw32/bin/../lib/gcc/nios2-elf/4.7.3\libgcc.a(_fpcmp_parts_df.o)
 .debug_aranges
                0x00000908       0x20 c:/develop/altera/13.1/nios2eds/bin/gnu/h-i686-mingw32/bin/../lib/gcc/nios2-elf/4.7.3\libgcc.a(_lshrdi3.o)
 .debug_aranges
                0x00000928       0x20 c:/develop/altera/13.1/nios2eds/bin/gnu/h-i686-mingw32/bin/../lib/gcc/nios2-elf/4.7.3\libgcc.a(_ashldi3.o)
 .debug_aranges
                0x00000948       0x20 ../lcdunit_ckplay_bsp/\libhal_bsp.a(alt_alarm_start.o)
 .debug_aranges
                0x00000968       0x20 ../lcdunit_ckplay_bsp/\libhal_bsp.a(alt_close.o)
 .debug_aranges
                0x00000988       0x20 ../lcdunit_ckplay_bsp/\libhal_bsp.a(alt_dev.o)
 .debug_aranges
                0x000009a8       0x18 ../lcdunit_ckplay_bsp/\libhal_bsp.a(alt_errno.o)
 .debug_aranges
                0x000009c0       0x20 ../lcdunit_ckplay_bsp/\libhal_bsp.a(alt_fs_reg.o)
 .debug_aranges
                0x000009e0       0x20 ../lcdunit_ckplay_bsp/\libhal_bsp.a(alt_fstat.o)
 .debug_aranges
                0x00000a00       0x20 ../lcdunit_ckplay_bsp/\libhal_bsp.a(alt_isatty.o)
 .debug_aranges
                0x00000a20       0x20 ../lcdunit_ckplay_bsp/\libhal_bsp.a(alt_load.o)
 .debug_aranges
                0x00000a40       0x20 ../lcdunit_ckplay_bsp/\libhal_bsp.a(alt_lseek.o)
 .debug_aranges
                0x00000a60       0x20 ../lcdunit_ckplay_bsp/\libhal_bsp.a(alt_main.o)
 .debug_aranges
                0x00000a80       0x20 ../lcdunit_ckplay_bsp/\libhal_bsp.a(alt_malloc_lock.o)
 .debug_aranges
                0x00000aa0       0x20 ../lcdunit_ckplay_bsp/\libhal_bsp.a(alt_read.o)
 .debug_aranges
                0x00000ac0       0x20 ../lcdunit_ckplay_bsp/\libhal_bsp.a(alt_release_fd.o)
 .debug_aranges
                0x00000ae0       0x20 ../lcdunit_ckplay_bsp/\libhal_bsp.a(alt_sbrk.o)
 .debug_aranges
                0x00000b00       0x20 ../lcdunit_ckplay_bsp/\libhal_bsp.a(alt_tick.o)
 .debug_aranges
                0x00000b20       0x20 ../lcdunit_ckplay_bsp/\libhal_bsp.a(alt_uncached_free.o)
 .debug_aranges
                0x00000b40       0x20 ../lcdunit_ckplay_bsp/\libhal_bsp.a(alt_uncached_malloc.o)
 .debug_aranges
                0x00000b60       0x20 ../lcdunit_ckplay_bsp/\libhal_bsp.a(alt_usleep.o)
 .debug_aranges
                0x00000b80       0x20 ../lcdunit_ckplay_bsp/\libhal_bsp.a(alt_write.o)
 .debug_aranges
                0x00000ba0       0x20 ../lcdunit_ckplay_bsp/\libhal_bsp.a(alt_sys_init.o)
 .debug_aranges
                0x00000bc0       0x20 ../lcdunit_ckplay_bsp/\libhal_bsp.a(altera_avalon_jtag_uart_fd.o)
 .debug_aranges
                0x00000be0       0x20 ../lcdunit_ckplay_bsp/\libhal_bsp.a(altera_avalon_jtag_uart_init.o)
 .debug_aranges
                0x00000c00       0x20 ../lcdunit_ckplay_bsp/\libhal_bsp.a(altera_avalon_jtag_uart_ioctl.o)
 .debug_aranges
                0x00000c20       0x20 ../lcdunit_ckplay_bsp/\libhal_bsp.a(altera_avalon_jtag_uart_read.o)
 .debug_aranges
                0x00000c40       0x20 ../lcdunit_ckplay_bsp/\libhal_bsp.a(altera_avalon_jtag_uart_write.o)
 .debug_aranges
                0x00000c60       0x20 ../lcdunit_ckplay_bsp/\libhal_bsp.a(altera_avalon_timer_sc.o)
 .debug_aranges
                0x00000c80       0x20 ../lcdunit_ckplay_bsp/\libhal_bsp.a(alt_busy_sleep.o)
 .debug_aranges
                0x00000ca0       0x20 ../lcdunit_ckplay_bsp/\libhal_bsp.a(alt_dcache_flush.o)
 .debug_aranges
                0x00000cc0       0x20 ../lcdunit_ckplay_bsp/\libhal_bsp.a(alt_dcache_flush_all.o)
 .debug_aranges
                0x00000ce0       0x20 ../lcdunit_ckplay_bsp/\libhal_bsp.a(alt_dev_llist_insert.o)
 .debug_aranges
                0x00000d00       0x20 ../lcdunit_ckplay_bsp/\libhal_bsp.a(alt_do_ctors.o)
 .debug_aranges
                0x00000d20       0x20 ../lcdunit_ckplay_bsp/\libhal_bsp.a(alt_do_dtors.o)
 .debug_aranges
                0x00000d40       0x20 ../lcdunit_ckplay_bsp/\libhal_bsp.a(alt_icache_flush_all.o)
 .debug_aranges
                0x00000d60       0x20 ../lcdunit_ckplay_bsp/\libhal_bsp.a(alt_iic.o)
 .debug_aranges
                0x00000d80       0x20 ../lcdunit_ckplay_bsp/\libhal_bsp.a(alt_iic_isr_register.o)
 .debug_aranges
                0x00000da0       0x20 ../lcdunit_ckplay_bsp/\libhal_bsp.a(alt_io_redirect.o)
 .debug_aranges
                0x00000dc0       0x30 ../lcdunit_ckplay_bsp/\libhal_bsp.a(alt_irq_entry.o)
 .debug_aranges
                0x00000df0       0x20 ../lcdunit_ckplay_bsp/\libhal_bsp.a(alt_irq_handler.o)
 .debug_aranges
                0x00000e10       0x18 ../lcdunit_ckplay_bsp/\libhal_bsp.a(alt_irq_vars.o)
 .debug_aranges
                0x00000e28       0x20 ../lcdunit_ckplay_bsp/\libhal_bsp.a(alt_open.o)
 .debug_aranges
                0x00000e48       0x20 ../lcdunit_ckplay_bsp/\libhal_bsp.a(altera_nios2_qsys_irq.o)
 .debug_aranges
                0x00000e68       0x38 ../lcdunit_ckplay_bsp/\libhal_bsp.a(alt_exception_entry.o)
 .debug_aranges
                0x00000ea0       0x20 ../lcdunit_ckplay_bsp/\libhal_bsp.a(alt_find_dev.o)
 .debug_aranges
                0x00000ec0       0x20 ../lcdunit_ckplay_bsp/\libhal_bsp.a(alt_find_file.o)
 .debug_aranges
                0x00000ee0       0x20 ../lcdunit_ckplay_bsp/\libhal_bsp.a(alt_get_fd.o)
 .debug_aranges
                0x00000f00       0x20 ../lcdunit_ckplay_bsp/\libhal_bsp.a(alt_icache_flush.o)
 .debug_aranges
                0x00000f20       0x20 c:/develop/altera/13.1/nios2eds/bin/gnu/h-i686-mingw32/bin/../lib/gcc/nios2-elf/4.7.3/../../../../../H-i686-mingw32/nios2-elf/lib\libc.a(lib_a-atexit.o)
 .debug_aranges
                0x00000f40       0x20 c:/develop/altera/13.1/nios2eds/bin/gnu/h-i686-mingw32/bin/../lib/gcc/nios2-elf/4.7.3/../../../../../H-i686-mingw32/nios2-elf/lib\libc.a(lib_a-exit.o)
 .debug_aranges
                0x00000f60       0x20 c:/develop/altera/13.1/nios2eds/bin/gnu/h-i686-mingw32/bin/../lib/gcc/nios2-elf/4.7.3/../../../../../H-i686-mingw32/nios2-elf/lib\libc.a(lib_a-memcmp.o)
 .debug_aranges
                0x00000f80       0x20 c:/develop/altera/13.1/nios2eds/bin/gnu/h-i686-mingw32/bin/../lib/gcc/nios2-elf/4.7.3/../../../../../H-i686-mingw32/nios2-elf/lib\libc.a(lib_a-__atexit.o)
 .debug_aranges
                0x00000fa0       0x20 c:/develop/altera/13.1/nios2eds/bin/gnu/h-i686-mingw32/bin/../lib/gcc/nios2-elf/4.7.3/../../../../../H-i686-mingw32/nios2-elf/lib\libc.a(lib_a-__call_atexit.o)
 .debug_aranges
                0x00000fc0       0x20 ../lcdunit_ckplay_bsp/\libhal_bsp.a(alt_exit.o)

.debug_pubnames
 *(.debug_pubnames)

.debug_info     0x00000000    0x2ded2
 *(.debug_info .gnu.linkonce.wi.*)
 .debug_info    0x00000000       0x8c ../lcdunit_ckplay_bsp//obj/HAL/src/crt0.o
 .debug_info    0x0000008c      0xa31 obj/default/ckplay.o
 .debug_info    0x00000abd     0x30c9 obj/default/mmcfs/fatfs/ff.o
 .debug_info    0x00003b86      0xc3c obj/default/mmcfs/fatfs/mmcbb.o
 .debug_info    0x000047c2      0x1d0 obj/default/mmcfs/fatfs/option/cc932.o
 .debug_info    0x00004992       0x9e obj/default/mmcfs/gettime.o
 .debug_info    0x00004a30      0x2dd obj/default/mmcfs/mmc_spi.o
 .debug_info    0x00004d0d      0xc65 obj/default/mmcfs/mmcfs.o
 .debug_info    0x00005972      0x7a2 obj/default/nd_lib/ILI9325.o
 .debug_info    0x00006114      0xe2e obj/default/nd_lib/nd_acm.o
 .debug_info    0x00006f42      0xdb5 obj/default/nd_lib/nd_egl.o
 .debug_info    0x00007cf7       0x93 obj/default/nd_lib/nd_acm_mcudecode.o
 .debug_info    0x00007d8a      0x289 c:/develop/altera/13.1/nios2eds/bin/gnu/h-i686-mingw32/bin/../lib/gcc/nios2-elf/4.7.3\libgcc.a(lib2-divmod.o)
 .debug_info    0x00008013      0x9c9 c:/develop/altera/13.1/nios2eds/bin/gnu/h-i686-mingw32/bin/../lib/gcc/nios2-elf/4.7.3/../../../../../H-i686-mingw32/nios2-elf/lib\libc.a(lib_a-malloc.o)
 .debug_info    0x000089dc      0xe44 c:/develop/altera/13.1/nios2eds/bin/gnu/h-i686-mingw32/bin/../lib/gcc/nios2-elf/4.7.3/../../../../../H-i686-mingw32/nios2-elf/lib\libc.a(lib_a-mallocr.o)
 .debug_info    0x00009820      0x10e c:/develop/altera/13.1/nios2eds/bin/gnu/h-i686-mingw32/bin/../lib/gcc/nios2-elf/4.7.3/../../../../../H-i686-mingw32/nios2-elf/lib\libc.a(lib_a-memcpy.o)
 .debug_info    0x0000992e      0x117 c:/develop/altera/13.1/nios2eds/bin/gnu/h-i686-mingw32/bin/../lib/gcc/nios2-elf/4.7.3/../../../../../H-i686-mingw32/nios2-elf/lib\libc.a(lib_a-memset.o)
 .debug_info    0x00009a45      0xa6c c:/develop/altera/13.1/nios2eds/bin/gnu/h-i686-mingw32/bin/../lib/gcc/nios2-elf/4.7.3/../../../../../H-i686-mingw32/nios2-elf/lib\libc.a(lib_a-printf.o)
 .debug_info    0x0000a4b1      0x9d7 c:/develop/altera/13.1/nios2eds/bin/gnu/h-i686-mingw32/bin/../lib/gcc/nios2-elf/4.7.3/../../../../../H-i686-mingw32/nios2-elf/lib\libc.a(lib_a-putchar.o)
 .debug_info    0x0000ae88      0xab7 c:/develop/altera/13.1/nios2eds/bin/gnu/h-i686-mingw32/bin/../lib/gcc/nios2-elf/4.7.3/../../../../../H-i686-mingw32/nios2-elf/lib\libc.a(lib_a-puts.o)
 .debug_info    0x0000b93f      0x9a3 c:/develop/altera/13.1/nios2eds/bin/gnu/h-i686-mingw32/bin/../lib/gcc/nios2-elf/4.7.3/../../../../../H-i686-mingw32/nios2-elf/lib\libc.a(lib_a-sbrkr.o)
 .debug_info    0x0000c2e2      0x114 c:/develop/altera/13.1/nios2eds/bin/gnu/h-i686-mingw32/bin/../lib/gcc/nios2-elf/4.7.3/../../../../../H-i686-mingw32/nios2-elf/lib\libc.a(lib_a-strcpy.o)
 .debug_info    0x0000c3f6       0xdf c:/develop/altera/13.1/nios2eds/bin/gnu/h-i686-mingw32/bin/../lib/gcc/nios2-elf/4.7.3/../../../../../H-i686-mingw32/nios2-elf/lib\libc.a(lib_a-strlen.o)
 .debug_info    0x0000c4d5     0x195a c:/develop/altera/13.1/nios2eds/bin/gnu/h-i686-mingw32/bin/../lib/gcc/nios2-elf/4.7.3/../../../../../H-i686-mingw32/nios2-elf/lib\libc.a(lib_a-vfprintf.o)
 .debug_info    0x0000de2f      0x9d4 c:/develop/altera/13.1/nios2eds/bin/gnu/h-i686-mingw32/bin/../lib/gcc/nios2-elf/4.7.3/../../../../../H-i686-mingw32/nios2-elf/lib\libc.a(lib_a-wsetup.o)
 .debug_info    0x0000e803     0x1408 c:/develop/altera/13.1/nios2eds/bin/gnu/h-i686-mingw32/bin/../lib/gcc/nios2-elf/4.7.3/../../../../../H-i686-mingw32/nios2-elf/lib\libc.a(lib_a-dtoa.o)
 .debug_info    0x0000fc0b      0xad0 c:/develop/altera/13.1/nios2eds/bin/gnu/h-i686-mingw32/bin/../lib/gcc/nios2-elf/4.7.3/../../../../../H-i686-mingw32/nios2-elf/lib\libc.a(lib_a-fflush.o)
 .debug_info    0x000106db      0xd6f c:/develop/altera/13.1/nios2eds/bin/gnu/h-i686-mingw32/bin/../lib/gcc/nios2-elf/4.7.3/../../../../../H-i686-mingw32/nios2-elf/lib\libc.a(lib_a-findfp.o)
 .debug_info    0x0001144a      0xcf9 c:/develop/altera/13.1/nios2eds/bin/gnu/h-i686-mingw32/bin/../lib/gcc/nios2-elf/4.7.3/../../../../../H-i686-mingw32/nios2-elf/lib\libc.a(lib_a-freer.o)
 .debug_info    0x00012143      0xd05 c:/develop/altera/13.1/nios2eds/bin/gnu/h-i686-mingw32/bin/../lib/gcc/nios2-elf/4.7.3/../../../../../H-i686-mingw32/nios2-elf/lib\libc.a(lib_a-fvwrite.o)
 .debug_info    0x00012e48      0xb72 c:/develop/altera/13.1/nios2eds/bin/gnu/h-i686-mingw32/bin/../lib/gcc/nios2-elf/4.7.3/../../../../../H-i686-mingw32/nios2-elf/lib\libc.a(lib_a-fwalk.o)
 .debug_info    0x000139ba      0x938 c:/develop/altera/13.1/nios2eds/bin/gnu/h-i686-mingw32/bin/../lib/gcc/nios2-elf/4.7.3/../../../../../H-i686-mingw32/nios2-elf/lib\libc.a(lib_a-impure.o)
 .debug_info    0x000142f2       0x84 c:/develop/altera/13.1/nios2eds/bin/gnu/h-i686-mingw32/bin/../lib/gcc/nios2-elf/4.7.3/../../../../../H-i686-mingw32/nios2-elf/lib\libc.a(lib_a-int_errno.o)
 .debug_info    0x00014376      0xc10 c:/develop/altera/13.1/nios2eds/bin/gnu/h-i686-mingw32/bin/../lib/gcc/nios2-elf/4.7.3/../../../../../H-i686-mingw32/nios2-elf/lib\libc.a(lib_a-locale.o)
 .debug_info    0x00014f86      0xbc2 c:/develop/altera/13.1/nios2eds/bin/gnu/h-i686-mingw32/bin/../lib/gcc/nios2-elf/4.7.3/../../../../../H-i686-mingw32/nios2-elf/lib\libc.a(lib_a-makebuf.o)
 .debug_info    0x00015b48      0x13e c:/develop/altera/13.1/nios2eds/bin/gnu/h-i686-mingw32/bin/../lib/gcc/nios2-elf/4.7.3/../../../../../H-i686-mingw32/nios2-elf/lib\libc.a(lib_a-memchr.o)
 .debug_info    0x00015c86      0x146 c:/develop/altera/13.1/nios2eds/bin/gnu/h-i686-mingw32/bin/../lib/gcc/nios2-elf/4.7.3/../../../../../H-i686-mingw32/nios2-elf/lib\libc.a(lib_a-memmove.o)
 .debug_info    0x00015dcc     0x172a c:/develop/altera/13.1/nios2eds/bin/gnu/h-i686-mingw32/bin/../lib/gcc/nios2-elf/4.7.3/../../../../../H-i686-mingw32/nios2-elf/lib\libc.a(lib_a-mprec.o)
 .debug_info    0x000174f6      0xa2e c:/develop/altera/13.1/nios2eds/bin/gnu/h-i686-mingw32/bin/../lib/gcc/nios2-elf/4.7.3/../../../../../H-i686-mingw32/nios2-elf/lib\libc.a(lib_a-putc.o)
 .debug_info    0x00017f24      0xd8e c:/develop/altera/13.1/nios2eds/bin/gnu/h-i686-mingw32/bin/../lib/gcc/nios2-elf/4.7.3/../../../../../H-i686-mingw32/nios2-elf/lib\libc.a(lib_a-reallocr.o)
 .debug_info    0x00018cb2       0xe8 c:/develop/altera/13.1/nios2eds/bin/gnu/h-i686-mingw32/bin/../lib/gcc/nios2-elf/4.7.3/../../../../../H-i686-mingw32/nios2-elf/lib\libc.a(lib_a-s_isinfd.o)
 .debug_info    0x00018d9a       0xe8 c:/develop/altera/13.1/nios2eds/bin/gnu/h-i686-mingw32/bin/../lib/gcc/nios2-elf/4.7.3/../../../../../H-i686-mingw32/nios2-elf/lib\libc.a(lib_a-s_isnand.o)
 .debug_info    0x00018e82      0xbfd c:/develop/altera/13.1/nios2eds/bin/gnu/h-i686-mingw32/bin/../lib/gcc/nios2-elf/4.7.3/../../../../../H-i686-mingw32/nios2-elf/lib\libc.a(lib_a-stdio.o)
 .debug_info    0x00019a7f       0xe1 c:/develop/altera/13.1/nios2eds/bin/gnu/h-i686-mingw32/bin/../lib/gcc/nios2-elf/4.7.3/../../../../../H-i686-mingw32/nios2-elf/lib\libc.a(lib_a-strcmp.o)
 .debug_info    0x00019b60      0xa6e c:/develop/altera/13.1/nios2eds/bin/gnu/h-i686-mingw32/bin/../lib/gcc/nios2-elf/4.7.3/../../../../../H-i686-mingw32/nios2-elf/lib\libc.a(lib_a-wbuf.o)
 .debug_info    0x0001a5ce      0x9d2 c:/develop/altera/13.1/nios2eds/bin/gnu/h-i686-mingw32/bin/../lib/gcc/nios2-elf/4.7.3/../../../../../H-i686-mingw32/nios2-elf/lib\libc.a(lib_a-writer.o)
 .debug_info    0x0001afa0      0xa9b c:/develop/altera/13.1/nios2eds/bin/gnu/h-i686-mingw32/bin/../lib/gcc/nios2-elf/4.7.3/../../../../../H-i686-mingw32/nios2-elf/lib\libc.a(lib_a-callocr.o)
 .debug_info    0x0001ba3b      0x97f c:/develop/altera/13.1/nios2eds/bin/gnu/h-i686-mingw32/bin/../lib/gcc/nios2-elf/4.7.3/../../../../../H-i686-mingw32/nios2-elf/lib\libc.a(lib_a-closer.o)
 .debug_info    0x0001c3ba      0xa97 c:/develop/altera/13.1/nios2eds/bin/gnu/h-i686-mingw32/bin/../lib/gcc/nios2-elf/4.7.3/../../../../../H-i686-mingw32/nios2-elf/lib\libc.a(lib_a-fclose.o)
 .debug_info    0x0001ce51      0xb2f c:/develop/altera/13.1/nios2eds/bin/gnu/h-i686-mingw32/bin/../lib/gcc/nios2-elf/4.7.3/../../../../../H-i686-mingw32/nios2-elf/lib\libc.a(lib_a-fstatr.o)
 .debug_info    0x0001d980      0x97f c:/develop/altera/13.1/nios2eds/bin/gnu/h-i686-mingw32/bin/../lib/gcc/nios2-elf/4.7.3/../../../../../H-i686-mingw32/nios2-elf/lib\libc.a(lib_a-isattyr.o)
 .debug_info    0x0001e2ff      0x9cb c:/develop/altera/13.1/nios2eds/bin/gnu/h-i686-mingw32/bin/../lib/gcc/nios2-elf/4.7.3/../../../../../H-i686-mingw32/nios2-elf/lib\libc.a(lib_a-lseekr.o)
 .debug_info    0x0001ecca      0x9cb c:/develop/altera/13.1/nios2eds/bin/gnu/h-i686-mingw32/bin/../lib/gcc/nios2-elf/4.7.3/../../../../../H-i686-mingw32/nios2-elf/lib\libc.a(lib_a-readr.o)
 .debug_info    0x0001f695      0x718 c:/develop/altera/13.1/nios2eds/bin/gnu/h-i686-mingw32/bin/../lib/gcc/nios2-elf/4.7.3\libgcc.a(_udivdi3.o)
 .debug_info    0x0001fdad      0x771 c:/develop/altera/13.1/nios2eds/bin/gnu/h-i686-mingw32/bin/../lib/gcc/nios2-elf/4.7.3\libgcc.a(_umoddi3.o)
 .debug_info    0x0002051e      0x588 c:/develop/altera/13.1/nios2eds/bin/gnu/h-i686-mingw32/bin/../lib/gcc/nios2-elf/4.7.3\libgcc.a(_addsub_df.o)
 .debug_info    0x00020aa6      0x519 c:/develop/altera/13.1/nios2eds/bin/gnu/h-i686-mingw32/bin/../lib/gcc/nios2-elf/4.7.3\libgcc.a(_mul_df.o)
 .debug_info    0x00020fbf      0x443 c:/develop/altera/13.1/nios2eds/bin/gnu/h-i686-mingw32/bin/../lib/gcc/nios2-elf/4.7.3\libgcc.a(_div_df.o)
 .debug_info    0x00021402      0x320 c:/develop/altera/13.1/nios2eds/bin/gnu/h-i686-mingw32/bin/../lib/gcc/nios2-elf/4.7.3\libgcc.a(_eq_df.o)
 .debug_info    0x00021722      0x320 c:/develop/altera/13.1/nios2eds/bin/gnu/h-i686-mingw32/bin/../lib/gcc/nios2-elf/4.7.3\libgcc.a(_ne_df.o)
 .debug_info    0x00021a42      0x320 c:/develop/altera/13.1/nios2eds/bin/gnu/h-i686-mingw32/bin/../lib/gcc/nios2-elf/4.7.3\libgcc.a(_gt_df.o)
 .debug_info    0x00021d62      0x320 c:/develop/altera/13.1/nios2eds/bin/gnu/h-i686-mingw32/bin/../lib/gcc/nios2-elf/4.7.3\libgcc.a(_ge_df.o)
 .debug_info    0x00022082      0x320 c:/develop/altera/13.1/nios2eds/bin/gnu/h-i686-mingw32/bin/../lib/gcc/nios2-elf/4.7.3\libgcc.a(_lt_df.o)
 .debug_info    0x000223a2      0x261 c:/develop/altera/13.1/nios2eds/bin/gnu/h-i686-mingw32/bin/../lib/gcc/nios2-elf/4.7.3\libgcc.a(_si_to_df.o)
 .debug_info    0x00022603      0x30b c:/develop/altera/13.1/nios2eds/bin/gnu/h-i686-mingw32/bin/../lib/gcc/nios2-elf/4.7.3\libgcc.a(_df_to_si.o)
 .debug_info    0x0002290e      0x155 c:/develop/altera/13.1/nios2eds/bin/gnu/h-i686-mingw32/bin/../lib/gcc/nios2-elf/4.7.3\libgcc.a(_thenan_df.o)
 .debug_info    0x00022a63      0x284 c:/develop/altera/13.1/nios2eds/bin/gnu/h-i686-mingw32/bin/../lib/gcc/nios2-elf/4.7.3\libgcc.a(_usi_to_df.o)
 .debug_info    0x00022ce7      0x1ea c:/develop/altera/13.1/nios2eds/bin/gnu/h-i686-mingw32/bin/../lib/gcc/nios2-elf/4.7.3\libgcc.a(_muldi3.o)
 .debug_info    0x00022ed1       0xac c:/develop/altera/13.1/nios2eds/bin/gnu/h-i686-mingw32/bin/../lib/gcc/nios2-elf/4.7.3\libgcc.a(_clz.o)
 .debug_info    0x00022f7d      0x123 c:/develop/altera/13.1/nios2eds/bin/gnu/h-i686-mingw32/bin/../lib/gcc/nios2-elf/4.7.3\libgcc.a(_clzsi2.o)
 .debug_info    0x000230a0      0x2f7 c:/develop/altera/13.1/nios2eds/bin/gnu/h-i686-mingw32/bin/../lib/gcc/nios2-elf/4.7.3\libgcc.a(_pack_df.o)
 .debug_info    0x00023397      0x265 c:/develop/altera/13.1/nios2eds/bin/gnu/h-i686-mingw32/bin/../lib/gcc/nios2-elf/4.7.3\libgcc.a(_unpack_df.o)
 .debug_info    0x000235fc      0x226 c:/develop/altera/13.1/nios2eds/bin/gnu/h-i686-mingw32/bin/../lib/gcc/nios2-elf/4.7.3\libgcc.a(_fpcmp_parts_df.o)
 .debug_info    0x00023822      0x185 c:/develop/altera/13.1/nios2eds/bin/gnu/h-i686-mingw32/bin/../lib/gcc/nios2-elf/4.7.3\libgcc.a(_lshrdi3.o)
 .debug_info    0x000239a7      0x185 c:/develop/altera/13.1/nios2eds/bin/gnu/h-i686-mingw32/bin/../lib/gcc/nios2-elf/4.7.3\libgcc.a(_ashldi3.o)
 .debug_info    0x00023b2c      0x2d4 ../lcdunit_ckplay_bsp/\libhal_bsp.a(alt_alarm_start.o)
 .debug_info    0x00023e00      0x3a4 ../lcdunit_ckplay_bsp/\libhal_bsp.a(alt_close.o)
 .debug_info    0x000241a4      0x4df ../lcdunit_ckplay_bsp/\libhal_bsp.a(alt_dev.o)
 .debug_info    0x00024683       0xa3 ../lcdunit_ckplay_bsp/\libhal_bsp.a(alt_errno.o)
 .debug_info    0x00024726      0x325 ../lcdunit_ckplay_bsp/\libhal_bsp.a(alt_fs_reg.o)
 .debug_info    0x00024a4b      0x4f5 ../lcdunit_ckplay_bsp/\libhal_bsp.a(alt_fstat.o)
 .debug_info    0x00024f40      0x50e ../lcdunit_ckplay_bsp/\libhal_bsp.a(alt_isatty.o)
 .debug_info    0x0002544e      0x135 ../lcdunit_ckplay_bsp/\libhal_bsp.a(alt_load.o)
 .debug_info    0x00025583      0x3a6 ../lcdunit_ckplay_bsp/\libhal_bsp.a(alt_lseek.o)
 .debug_info    0x00025929      0x27f ../lcdunit_ckplay_bsp/\libhal_bsp.a(alt_main.o)
 .debug_info    0x00025ba8      0x950 ../lcdunit_ckplay_bsp/\libhal_bsp.a(alt_malloc_lock.o)
 .debug_info    0x000264f8      0x543 ../lcdunit_ckplay_bsp/\libhal_bsp.a(alt_read.o)
 .debug_info    0x00026a3b      0x2dd ../lcdunit_ckplay_bsp/\libhal_bsp.a(alt_release_fd.o)
 .debug_info    0x00026d18      0x1b1 ../lcdunit_ckplay_bsp/\libhal_bsp.a(alt_sbrk.o)
 .debug_info    0x00026ec9      0x33a ../lcdunit_ckplay_bsp/\libhal_bsp.a(alt_tick.o)
 .debug_info    0x00027203       0xdf ../lcdunit_ckplay_bsp/\libhal_bsp.a(alt_uncached_free.o)
 .debug_info    0x000272e2      0x12d ../lcdunit_ckplay_bsp/\libhal_bsp.a(alt_uncached_malloc.o)
 .debug_info    0x0002740f       0xad ../lcdunit_ckplay_bsp/\libhal_bsp.a(alt_usleep.o)
 .debug_info    0x000274bc      0x54a ../lcdunit_ckplay_bsp/\libhal_bsp.a(alt_write.o)
 .debug_info    0x00027a06      0x62f ../lcdunit_ckplay_bsp/\libhal_bsp.a(alt_sys_init.o)
 .debug_info    0x00028035      0x678 ../lcdunit_ckplay_bsp/\libhal_bsp.a(altera_avalon_jtag_uart_fd.o)
 .debug_info    0x000286ad      0x47e ../lcdunit_ckplay_bsp/\libhal_bsp.a(altera_avalon_jtag_uart_init.o)
 .debug_info    0x00028b2b      0x2ab ../lcdunit_ckplay_bsp/\libhal_bsp.a(altera_avalon_jtag_uart_ioctl.o)
 .debug_info    0x00028dd6      0x3b2 ../lcdunit_ckplay_bsp/\libhal_bsp.a(altera_avalon_jtag_uart_read.o)
 .debug_info    0x00029188      0x3b1 ../lcdunit_ckplay_bsp/\libhal_bsp.a(altera_avalon_jtag_uart_write.o)
 .debug_info    0x00029539      0x2bc ../lcdunit_ckplay_bsp/\libhal_bsp.a(altera_avalon_timer_sc.o)
 .debug_info    0x000297f5       0xd6 ../lcdunit_ckplay_bsp/\libhal_bsp.a(alt_busy_sleep.o)
 .debug_info    0x000298cb       0xb7 ../lcdunit_ckplay_bsp/\libhal_bsp.a(alt_dcache_flush.o)
 .debug_info    0x00029982       0x8f ../lcdunit_ckplay_bsp/\libhal_bsp.a(alt_dcache_flush_all.o)
 .debug_info    0x00029a11      0x1b9 ../lcdunit_ckplay_bsp/\libhal_bsp.a(alt_dev_llist_insert.o)
 .debug_info    0x00029bca       0x8d ../lcdunit_ckplay_bsp/\libhal_bsp.a(alt_do_ctors.o)
 .debug_info    0x00029c57       0x8d ../lcdunit_ckplay_bsp/\libhal_bsp.a(alt_do_dtors.o)
 .debug_info    0x00029ce4       0xcd ../lcdunit_ckplay_bsp/\libhal_bsp.a(alt_icache_flush_all.o)
 .debug_info    0x00029db1      0x3c4 ../lcdunit_ckplay_bsp/\libhal_bsp.a(alt_iic.o)
 .debug_info    0x0002a175      0x25c ../lcdunit_ckplay_bsp/\libhal_bsp.a(alt_iic_isr_register.o)
 .debug_info    0x0002a3d1      0x5cc ../lcdunit_ckplay_bsp/\libhal_bsp.a(alt_io_redirect.o)
 .debug_info    0x0002a99d       0x91 ../lcdunit_ckplay_bsp/\libhal_bsp.a(alt_irq_entry.o)
 .debug_info    0x0002aa2e      0x193 ../lcdunit_ckplay_bsp/\libhal_bsp.a(alt_irq_handler.o)
 .debug_info    0x0002abc1       0x8a ../lcdunit_ckplay_bsp/\libhal_bsp.a(alt_irq_vars.o)
 .debug_info    0x0002ac4b      0x4de ../lcdunit_ckplay_bsp/\libhal_bsp.a(alt_open.o)
 .debug_info    0x0002b129       0x8f ../lcdunit_ckplay_bsp/\libhal_bsp.a(altera_nios2_qsys_irq.o)
 .debug_info    0x0002b1b8       0x97 ../lcdunit_ckplay_bsp/\libhal_bsp.a(alt_exception_entry.o)
 .debug_info    0x0002b24f      0x387 ../lcdunit_ckplay_bsp/\libhal_bsp.a(alt_find_dev.o)
 .debug_info    0x0002b5d6      0x370 ../lcdunit_ckplay_bsp/\libhal_bsp.a(alt_find_file.o)
 .debug_info    0x0002b946      0x339 ../lcdunit_ckplay_bsp/\libhal_bsp.a(alt_get_fd.o)
 .debug_info    0x0002bc7f       0xdb ../lcdunit_ckplay_bsp/\libhal_bsp.a(alt_icache_flush.o)
 .debug_info    0x0002bd5a      0x1e6 c:/develop/altera/13.1/nios2eds/bin/gnu/h-i686-mingw32/bin/../lib/gcc/nios2-elf/4.7.3/../../../../../H-i686-mingw32/nios2-elf/lib\libc.a(lib_a-atexit.o)
 .debug_info    0x0002bf40      0x993 c:/develop/altera/13.1/nios2eds/bin/gnu/h-i686-mingw32/bin/../lib/gcc/nios2-elf/4.7.3/../../../../../H-i686-mingw32/nios2-elf/lib\libc.a(lib_a-exit.o)
 .debug_info    0x0002c8d3      0x117 c:/develop/altera/13.1/nios2eds/bin/gnu/h-i686-mingw32/bin/../lib/gcc/nios2-elf/4.7.3/../../../../../H-i686-mingw32/nios2-elf/lib\libc.a(lib_a-memcmp.o)
 .debug_info    0x0002c9ea      0x9f9 c:/develop/altera/13.1/nios2eds/bin/gnu/h-i686-mingw32/bin/../lib/gcc/nios2-elf/4.7.3/../../../../../H-i686-mingw32/nios2-elf/lib\libc.a(lib_a-__atexit.o)
 .debug_info    0x0002d3e3      0xa07 c:/develop/altera/13.1/nios2eds/bin/gnu/h-i686-mingw32/bin/../lib/gcc/nios2-elf/4.7.3/../../../../../H-i686-mingw32/nios2-elf/lib\libc.a(lib_a-__call_atexit.o)
 .debug_info    0x0002ddea       0xe8 ../lcdunit_ckplay_bsp/\libhal_bsp.a(alt_exit.o)

.debug_abbrev   0x00000000     0xb394
 *(.debug_abbrev)
 .debug_abbrev  0x00000000       0x14 ../lcdunit_ckplay_bsp//obj/HAL/src/crt0.o
 .debug_abbrev  0x00000014      0x1df obj/default/ckplay.o
 .debug_abbrev  0x000001f3      0x387 obj/default/mmcfs/fatfs/ff.o
 .debug_abbrev  0x0000057a      0x2b2 obj/default/mmcfs/fatfs/mmcbb.o
 .debug_abbrev  0x0000082c       0xd8 obj/default/mmcfs/fatfs/option/cc932.o
 .debug_abbrev  0x00000904       0x51 obj/default/mmcfs/gettime.o
 .debug_abbrev  0x00000955      0x187 obj/default/mmcfs/mmc_spi.o
 .debug_abbrev  0x00000adc      0x205 obj/default/mmcfs/mmcfs.o
 .debug_abbrev  0x00000ce1       0xe5 obj/default/nd_lib/ILI9325.o
 .debug_abbrev  0x00000dc6      0x2fb obj/default/nd_lib/nd_acm.o
 .debug_abbrev  0x000010c1      0x294 obj/default/nd_lib/nd_egl.o
 .debug_abbrev  0x00001355       0x14 obj/default/nd_lib/nd_acm_mcudecode.o
 .debug_abbrev  0x00001369      0x112 c:/develop/altera/13.1/nios2eds/bin/gnu/h-i686-mingw32/bin/../lib/gcc/nios2-elf/4.7.3\libgcc.a(lib2-divmod.o)
 .debug_abbrev  0x0000147b      0x1dc c:/develop/altera/13.1/nios2eds/bin/gnu/h-i686-mingw32/bin/../lib/gcc/nios2-elf/4.7.3/../../../../../H-i686-mingw32/nios2-elf/lib\libc.a(lib_a-malloc.o)
 .debug_abbrev  0x00001657      0x284 c:/develop/altera/13.1/nios2eds/bin/gnu/h-i686-mingw32/bin/../lib/gcc/nios2-elf/4.7.3/../../../../../H-i686-mingw32/nios2-elf/lib\libc.a(lib_a-mallocr.o)
 .debug_abbrev  0x000018db       0x9c c:/develop/altera/13.1/nios2eds/bin/gnu/h-i686-mingw32/bin/../lib/gcc/nios2-elf/4.7.3/../../../../../H-i686-mingw32/nios2-elf/lib\libc.a(lib_a-memcpy.o)
 .debug_abbrev  0x00001977       0xac c:/develop/altera/13.1/nios2eds/bin/gnu/h-i686-mingw32/bin/../lib/gcc/nios2-elf/4.7.3/../../../../../H-i686-mingw32/nios2-elf/lib\libc.a(lib_a-memset.o)
 .debug_abbrev  0x00001a23      0x209 c:/develop/altera/13.1/nios2eds/bin/gnu/h-i686-mingw32/bin/../lib/gcc/nios2-elf/4.7.3/../../../../../H-i686-mingw32/nios2-elf/lib\libc.a(lib_a-printf.o)
 .debug_abbrev  0x00001c2c      0x1cd c:/develop/altera/13.1/nios2eds/bin/gnu/h-i686-mingw32/bin/../lib/gcc/nios2-elf/4.7.3/../../../../../H-i686-mingw32/nios2-elf/lib\libc.a(lib_a-putchar.o)
 .debug_abbrev  0x00001df9      0x208 c:/develop/altera/13.1/nios2eds/bin/gnu/h-i686-mingw32/bin/../lib/gcc/nios2-elf/4.7.3/../../../../../H-i686-mingw32/nios2-elf/lib\libc.a(lib_a-puts.o)
 .debug_abbrev  0x00002001      0x1df c:/develop/altera/13.1/nios2eds/bin/gnu/h-i686-mingw32/bin/../lib/gcc/nios2-elf/4.7.3/../../../../../H-i686-mingw32/nios2-elf/lib\libc.a(lib_a-sbrkr.o)
 .debug_abbrev  0x000021e0       0x83 c:/develop/altera/13.1/nios2eds/bin/gnu/h-i686-mingw32/bin/../lib/gcc/nios2-elf/4.7.3/../../../../../H-i686-mingw32/nios2-elf/lib\libc.a(lib_a-strcpy.o)
 .debug_abbrev  0x00002263       0x90 c:/develop/altera/13.1/nios2eds/bin/gnu/h-i686-mingw32/bin/../lib/gcc/nios2-elf/4.7.3/../../../../../H-i686-mingw32/nios2-elf/lib\libc.a(lib_a-strlen.o)
 .debug_abbrev  0x000022f3      0x3d9 c:/develop/altera/13.1/nios2eds/bin/gnu/h-i686-mingw32/bin/../lib/gcc/nios2-elf/4.7.3/../../../../../H-i686-mingw32/nios2-elf/lib\libc.a(lib_a-vfprintf.o)
 .debug_abbrev  0x000026cc      0x1d5 c:/develop/altera/13.1/nios2eds/bin/gnu/h-i686-mingw32/bin/../lib/gcc/nios2-elf/4.7.3/../../../../../H-i686-mingw32/nios2-elf/lib\libc.a(lib_a-wsetup.o)
 .debug_abbrev  0x000028a1      0x2ab c:/develop/altera/13.1/nios2eds/bin/gnu/h-i686-mingw32/bin/../lib/gcc/nios2-elf/4.7.3/../../../../../H-i686-mingw32/nios2-elf/lib\libc.a(lib_a-dtoa.o)
 .debug_abbrev  0x00002b4c      0x259 c:/develop/altera/13.1/nios2eds/bin/gnu/h-i686-mingw32/bin/../lib/gcc/nios2-elf/4.7.3/../../../../../H-i686-mingw32/nios2-elf/lib\libc.a(lib_a-fflush.o)
 .debug_abbrev  0x00002da5      0x317 c:/develop/altera/13.1/nios2eds/bin/gnu/h-i686-mingw32/bin/../lib/gcc/nios2-elf/4.7.3/../../../../../H-i686-mingw32/nios2-elf/lib\libc.a(lib_a-findfp.o)
 .debug_abbrev  0x000030bc      0x25d c:/develop/altera/13.1/nios2eds/bin/gnu/h-i686-mingw32/bin/../lib/gcc/nios2-elf/4.7.3/../../../../../H-i686-mingw32/nios2-elf/lib\libc.a(lib_a-freer.o)
 .debug_abbrev  0x00003319      0x234 c:/develop/altera/13.1/nios2eds/bin/gnu/h-i686-mingw32/bin/../lib/gcc/nios2-elf/4.7.3/../../../../../H-i686-mingw32/nios2-elf/lib\libc.a(lib_a-fvwrite.o)
 .debug_abbrev  0x0000354d      0x224 c:/develop/altera/13.1/nios2eds/bin/gnu/h-i686-mingw32/bin/../lib/gcc/nios2-elf/4.7.3/../../../../../H-i686-mingw32/nios2-elf/lib\libc.a(lib_a-fwalk.o)
 .debug_abbrev  0x00003771      0x162 c:/develop/altera/13.1/nios2eds/bin/gnu/h-i686-mingw32/bin/../lib/gcc/nios2-elf/4.7.3/../../../../../H-i686-mingw32/nios2-elf/lib\libc.a(lib_a-impure.o)
 .debug_abbrev  0x000038d3       0x37 c:/develop/altera/13.1/nios2eds/bin/gnu/h-i686-mingw32/bin/../lib/gcc/nios2-elf/4.7.3/../../../../../H-i686-mingw32/nios2-elf/lib\libc.a(lib_a-int_errno.o)
 .debug_abbrev  0x0000390a      0x29f c:/develop/altera/13.1/nios2eds/bin/gnu/h-i686-mingw32/bin/../lib/gcc/nios2-elf/4.7.3/../../../../../H-i686-mingw32/nios2-elf/lib\libc.a(lib_a-locale.o)
 .debug_abbrev  0x00003ba9      0x1e8 c:/develop/altera/13.1/nios2eds/bin/gnu/h-i686-mingw32/bin/../lib/gcc/nios2-elf/4.7.3/../../../../../H-i686-mingw32/nios2-elf/lib\libc.a(lib_a-makebuf.o)
 .debug_abbrev  0x00003d91       0xab c:/develop/altera/13.1/nios2eds/bin/gnu/h-i686-mingw32/bin/../lib/gcc/nios2-elf/4.7.3/../../../../../H-i686-mingw32/nios2-elf/lib\libc.a(lib_a-memchr.o)
 .debug_abbrev  0x00003e3c       0x9c c:/develop/altera/13.1/nios2eds/bin/gnu/h-i686-mingw32/bin/../lib/gcc/nios2-elf/4.7.3/../../../../../H-i686-mingw32/nios2-elf/lib\libc.a(lib_a-memmove.o)
 .debug_abbrev  0x00003ed8      0x394 c:/develop/altera/13.1/nios2eds/bin/gnu/h-i686-mingw32/bin/../lib/gcc/nios2-elf/4.7.3/../../../../../H-i686-mingw32/nios2-elf/lib\libc.a(lib_a-mprec.o)
 .debug_abbrev  0x0000426c      0x1f8 c:/develop/altera/13.1/nios2eds/bin/gnu/h-i686-mingw32/bin/../lib/gcc/nios2-elf/4.7.3/../../../../../H-i686-mingw32/nios2-elf/lib\libc.a(lib_a-putc.o)
 .debug_abbrev  0x00004464      0x242 c:/develop/altera/13.1/nios2eds/bin/gnu/h-i686-mingw32/bin/../lib/gcc/nios2-elf/4.7.3/../../../../../H-i686-mingw32/nios2-elf/lib\libc.a(lib_a-reallocr.o)
 .debug_abbrev  0x000046a6       0x6f c:/develop/altera/13.1/nios2eds/bin/gnu/h-i686-mingw32/bin/../lib/gcc/nios2-elf/4.7.3/../../../../../H-i686-mingw32/nios2-elf/lib\libc.a(lib_a-s_isinfd.o)
 .debug_abbrev  0x00004715       0x6f c:/develop/altera/13.1/nios2eds/bin/gnu/h-i686-mingw32/bin/../lib/gcc/nios2-elf/4.7.3/../../../../../H-i686-mingw32/nios2-elf/lib\libc.a(lib_a-s_isnand.o)
 .debug_abbrev  0x00004784      0x226 c:/develop/altera/13.1/nios2eds/bin/gnu/h-i686-mingw32/bin/../lib/gcc/nios2-elf/4.7.3/../../../../../H-i686-mingw32/nios2-elf/lib\libc.a(lib_a-stdio.o)
 .debug_abbrev  0x000049aa       0x74 c:/develop/altera/13.1/nios2eds/bin/gnu/h-i686-mingw32/bin/../lib/gcc/nios2-elf/4.7.3/../../../../../H-i686-mingw32/nios2-elf/lib\libc.a(lib_a-strcmp.o)
 .debug_abbrev  0x00004a1e      0x21a c:/develop/altera/13.1/nios2eds/bin/gnu/h-i686-mingw32/bin/../lib/gcc/nios2-elf/4.7.3/../../../../../H-i686-mingw32/nios2-elf/lib\libc.a(lib_a-wbuf.o)
 .debug_abbrev  0x00004c38      0x1c0 c:/develop/altera/13.1/nios2eds/bin/gnu/h-i686-mingw32/bin/../lib/gcc/nios2-elf/4.7.3/../../../../../H-i686-mingw32/nios2-elf/lib\libc.a(lib_a-writer.o)
 .debug_abbrev  0x00004df8      0x1f5 c:/develop/altera/13.1/nios2eds/bin/gnu/h-i686-mingw32/bin/../lib/gcc/nios2-elf/4.7.3/../../../../../H-i686-mingw32/nios2-elf/lib\libc.a(lib_a-callocr.o)
 .debug_abbrev  0x00004fed      0x1bb c:/develop/altera/13.1/nios2eds/bin/gnu/h-i686-mingw32/bin/../lib/gcc/nios2-elf/4.7.3/../../../../../H-i686-mingw32/nios2-elf/lib\libc.a(lib_a-closer.o)
 .debug_abbrev  0x000051a8      0x24e c:/develop/altera/13.1/nios2eds/bin/gnu/h-i686-mingw32/bin/../lib/gcc/nios2-elf/4.7.3/../../../../../H-i686-mingw32/nios2-elf/lib\libc.a(lib_a-fclose.o)
 .debug_abbrev  0x000053f6      0x1ca c:/develop/altera/13.1/nios2eds/bin/gnu/h-i686-mingw32/bin/../lib/gcc/nios2-elf/4.7.3/../../../../../H-i686-mingw32/nios2-elf/lib\libc.a(lib_a-fstatr.o)
 .debug_abbrev  0x000055c0      0x1bb c:/develop/altera/13.1/nios2eds/bin/gnu/h-i686-mingw32/bin/../lib/gcc/nios2-elf/4.7.3/../../../../../H-i686-mingw32/nios2-elf/lib\libc.a(lib_a-isattyr.o)
 .debug_abbrev  0x0000577b      0x1ca c:/develop/altera/13.1/nios2eds/bin/gnu/h-i686-mingw32/bin/../lib/gcc/nios2-elf/4.7.3/../../../../../H-i686-mingw32/nios2-elf/lib\libc.a(lib_a-lseekr.o)
 .debug_abbrev  0x00005945      0x1bb c:/develop/altera/13.1/nios2eds/bin/gnu/h-i686-mingw32/bin/../lib/gcc/nios2-elf/4.7.3/../../../../../H-i686-mingw32/nios2-elf/lib\libc.a(lib_a-readr.o)
 .debug_abbrev  0x00005b00      0x170 c:/develop/altera/13.1/nios2eds/bin/gnu/h-i686-mingw32/bin/../lib/gcc/nios2-elf/4.7.3\libgcc.a(_udivdi3.o)
 .debug_abbrev  0x00005c70      0x193 c:/develop/altera/13.1/nios2eds/bin/gnu/h-i686-mingw32/bin/../lib/gcc/nios2-elf/4.7.3\libgcc.a(_umoddi3.o)
 .debug_abbrev  0x00005e03      0x22d c:/develop/altera/13.1/nios2eds/bin/gnu/h-i686-mingw32/bin/../lib/gcc/nios2-elf/4.7.3\libgcc.a(_addsub_df.o)
 .debug_abbrev  0x00006030      0x240 c:/develop/altera/13.1/nios2eds/bin/gnu/h-i686-mingw32/bin/../lib/gcc/nios2-elf/4.7.3\libgcc.a(_mul_df.o)
 .debug_abbrev  0x00006270      0x245 c:/develop/altera/13.1/nios2eds/bin/gnu/h-i686-mingw32/bin/../lib/gcc/nios2-elf/4.7.3\libgcc.a(_div_df.o)
 .debug_abbrev  0x000064b5      0x1a5 c:/develop/altera/13.1/nios2eds/bin/gnu/h-i686-mingw32/bin/../lib/gcc/nios2-elf/4.7.3\libgcc.a(_eq_df.o)
 .debug_abbrev  0x0000665a      0x1a5 c:/develop/altera/13.1/nios2eds/bin/gnu/h-i686-mingw32/bin/../lib/gcc/nios2-elf/4.7.3\libgcc.a(_ne_df.o)
 .debug_abbrev  0x000067ff      0x1a5 c:/develop/altera/13.1/nios2eds/bin/gnu/h-i686-mingw32/bin/../lib/gcc/nios2-elf/4.7.3\libgcc.a(_gt_df.o)
 .debug_abbrev  0x000069a4      0x1a5 c:/develop/altera/13.1/nios2eds/bin/gnu/h-i686-mingw32/bin/../lib/gcc/nios2-elf/4.7.3\libgcc.a(_ge_df.o)
 .debug_abbrev  0x00006b49      0x1a5 c:/develop/altera/13.1/nios2eds/bin/gnu/h-i686-mingw32/bin/../lib/gcc/nios2-elf/4.7.3\libgcc.a(_lt_df.o)
 .debug_abbrev  0x00006cee      0x19c c:/develop/altera/13.1/nios2eds/bin/gnu/h-i686-mingw32/bin/../lib/gcc/nios2-elf/4.7.3\libgcc.a(_si_to_df.o)
 .debug_abbrev  0x00006e8a      0x1ae c:/develop/altera/13.1/nios2eds/bin/gnu/h-i686-mingw32/bin/../lib/gcc/nios2-elf/4.7.3\libgcc.a(_df_to_si.o)
 .debug_abbrev  0x00007038       0xb6 c:/develop/altera/13.1/nios2eds/bin/gnu/h-i686-mingw32/bin/../lib/gcc/nios2-elf/4.7.3\libgcc.a(_thenan_df.o)
 .debug_abbrev  0x000070ee      0x1bf c:/develop/altera/13.1/nios2eds/bin/gnu/h-i686-mingw32/bin/../lib/gcc/nios2-elf/4.7.3\libgcc.a(_usi_to_df.o)
 .debug_abbrev  0x000072ad       0xe0 c:/develop/altera/13.1/nios2eds/bin/gnu/h-i686-mingw32/bin/../lib/gcc/nios2-elf/4.7.3\libgcc.a(_muldi3.o)
 .debug_abbrev  0x0000738d       0x5d c:/develop/altera/13.1/nios2eds/bin/gnu/h-i686-mingw32/bin/../lib/gcc/nios2-elf/4.7.3\libgcc.a(_clz.o)
 .debug_abbrev  0x000073ea       0xbe c:/develop/altera/13.1/nios2eds/bin/gnu/h-i686-mingw32/bin/../lib/gcc/nios2-elf/4.7.3\libgcc.a(_clzsi2.o)
 .debug_abbrev  0x000074a8      0x1b6 c:/develop/altera/13.1/nios2eds/bin/gnu/h-i686-mingw32/bin/../lib/gcc/nios2-elf/4.7.3\libgcc.a(_pack_df.o)
 .debug_abbrev  0x0000765e      0x15d c:/develop/altera/13.1/nios2eds/bin/gnu/h-i686-mingw32/bin/../lib/gcc/nios2-elf/4.7.3\libgcc.a(_unpack_df.o)
 .debug_abbrev  0x000077bb      0x146 c:/develop/altera/13.1/nios2eds/bin/gnu/h-i686-mingw32/bin/../lib/gcc/nios2-elf/4.7.3\libgcc.a(_fpcmp_parts_df.o)
 .debug_abbrev  0x00007901       0xf1 c:/develop/altera/13.1/nios2eds/bin/gnu/h-i686-mingw32/bin/../lib/gcc/nios2-elf/4.7.3\libgcc.a(_lshrdi3.o)
 .debug_abbrev  0x000079f2       0xf1 c:/develop/altera/13.1/nios2eds/bin/gnu/h-i686-mingw32/bin/../lib/gcc/nios2-elf/4.7.3\libgcc.a(_ashldi3.o)
 .debug_abbrev  0x00007ae3      0x187 ../lcdunit_ckplay_bsp/\libhal_bsp.a(alt_alarm_start.o)
 .debug_abbrev  0x00007c6a      0x176 ../lcdunit_ckplay_bsp/\libhal_bsp.a(alt_close.o)
 .debug_abbrev  0x00007de0       0xd9 ../lcdunit_ckplay_bsp/\libhal_bsp.a(alt_dev.o)
 .debug_abbrev  0x00007eb9       0x5a ../lcdunit_ckplay_bsp/\libhal_bsp.a(alt_errno.o)
 .debug_abbrev  0x00007f13      0x10f ../lcdunit_ckplay_bsp/\libhal_bsp.a(alt_fs_reg.o)
 .debug_abbrev  0x00008022      0x13f ../lcdunit_ckplay_bsp/\libhal_bsp.a(alt_fstat.o)
 .debug_abbrev  0x00008161      0x151 ../lcdunit_ckplay_bsp/\libhal_bsp.a(alt_isatty.o)
 .debug_abbrev  0x000082b2       0x9d ../lcdunit_ckplay_bsp/\libhal_bsp.a(alt_load.o)
 .debug_abbrev  0x0000834f      0x13c ../lcdunit_ckplay_bsp/\libhal_bsp.a(alt_lseek.o)
 .debug_abbrev  0x0000848b      0x14d ../lcdunit_ckplay_bsp/\libhal_bsp.a(alt_main.o)
 .debug_abbrev  0x000085d8      0x187 ../lcdunit_ckplay_bsp/\libhal_bsp.a(alt_malloc_lock.o)
 .debug_abbrev  0x0000875f      0x15a ../lcdunit_ckplay_bsp/\libhal_bsp.a(alt_read.o)
 .debug_abbrev  0x000088b9       0xde ../lcdunit_ckplay_bsp/\libhal_bsp.a(alt_release_fd.o)
 .debug_abbrev  0x00008997      0x12a ../lcdunit_ckplay_bsp/\libhal_bsp.a(alt_sbrk.o)
 .debug_abbrev  0x00008ac1      0x17d ../lcdunit_ckplay_bsp/\libhal_bsp.a(alt_tick.o)
 .debug_abbrev  0x00008c3e       0xa7 ../lcdunit_ckplay_bsp/\libhal_bsp.a(alt_uncached_free.o)
 .debug_abbrev  0x00008ce5       0xd7 ../lcdunit_ckplay_bsp/\libhal_bsp.a(alt_uncached_malloc.o)
 .debug_abbrev  0x00008dbc       0x60 ../lcdunit_ckplay_bsp/\libhal_bsp.a(alt_usleep.o)
 .debug_abbrev  0x00008e1c      0x15f ../lcdunit_ckplay_bsp/\libhal_bsp.a(alt_write.o)
 .debug_abbrev  0x00008f7b      0x1f5 ../lcdunit_ckplay_bsp/\libhal_bsp.a(alt_sys_init.o)
 .debug_abbrev  0x00009170      0x168 ../lcdunit_ckplay_bsp/\libhal_bsp.a(altera_avalon_jtag_uart_fd.o)
 .debug_abbrev  0x000092d8      0x1ed ../lcdunit_ckplay_bsp/\libhal_bsp.a(altera_avalon_jtag_uart_init.o)
 .debug_abbrev  0x000094c5      0x111 ../lcdunit_ckplay_bsp/\libhal_bsp.a(altera_avalon_jtag_uart_ioctl.o)
 .debug_abbrev  0x000095d6      0x1ca ../lcdunit_ckplay_bsp/\libhal_bsp.a(altera_avalon_jtag_uart_read.o)
 .debug_abbrev  0x000097a0      0x1b7 ../lcdunit_ckplay_bsp/\libhal_bsp.a(altera_avalon_jtag_uart_write.o)
 .debug_abbrev  0x00009957      0x1ad ../lcdunit_ckplay_bsp/\libhal_bsp.a(altera_avalon_timer_sc.o)
 .debug_abbrev  0x00009b04       0x8d ../lcdunit_ckplay_bsp/\libhal_bsp.a(alt_busy_sleep.o)
 .debug_abbrev  0x00009b91       0x74 ../lcdunit_ckplay_bsp/\libhal_bsp.a(alt_dcache_flush.o)
 .debug_abbrev  0x00009c05       0x42 ../lcdunit_ckplay_bsp/\libhal_bsp.a(alt_dcache_flush_all.o)
 .debug_abbrev  0x00009c47      0x114 ../lcdunit_ckplay_bsp/\libhal_bsp.a(alt_dev_llist_insert.o)
 .debug_abbrev  0x00009d5b       0x79 ../lcdunit_ckplay_bsp/\libhal_bsp.a(alt_do_ctors.o)
 .debug_abbrev  0x00009dd4       0x79 ../lcdunit_ckplay_bsp/\libhal_bsp.a(alt_do_dtors.o)
 .debug_abbrev  0x00009e4d       0x8a ../lcdunit_ckplay_bsp/\libhal_bsp.a(alt_icache_flush_all.o)
 .debug_abbrev  0x00009ed7      0x18c ../lcdunit_ckplay_bsp/\libhal_bsp.a(alt_iic.o)
 .debug_abbrev  0x0000a063      0x1b5 ../lcdunit_ckplay_bsp/\libhal_bsp.a(alt_iic_isr_register.o)
 .debug_abbrev  0x0000a218      0x1a3 ../lcdunit_ckplay_bsp/\libhal_bsp.a(alt_io_redirect.o)
 .debug_abbrev  0x0000a3bb       0x12 ../lcdunit_ckplay_bsp/\libhal_bsp.a(alt_irq_entry.o)
 .debug_abbrev  0x0000a3cd      0x12d ../lcdunit_ckplay_bsp/\libhal_bsp.a(alt_irq_handler.o)
 .debug_abbrev  0x0000a4fa       0x40 ../lcdunit_ckplay_bsp/\libhal_bsp.a(alt_irq_vars.o)
 .debug_abbrev  0x0000a53a      0x1ea ../lcdunit_ckplay_bsp/\libhal_bsp.a(alt_open.o)
 .debug_abbrev  0x0000a724       0x42 ../lcdunit_ckplay_bsp/\libhal_bsp.a(altera_nios2_qsys_irq.o)
 .debug_abbrev  0x0000a766       0x12 ../lcdunit_ckplay_bsp/\libhal_bsp.a(alt_exception_entry.o)
 .debug_abbrev  0x0000a778      0x12e ../lcdunit_ckplay_bsp/\libhal_bsp.a(alt_find_dev.o)
 .debug_abbrev  0x0000a8a6      0x13f ../lcdunit_ckplay_bsp/\libhal_bsp.a(alt_find_file.o)
 .debug_abbrev  0x0000a9e5      0x10d ../lcdunit_ckplay_bsp/\libhal_bsp.a(alt_get_fd.o)
 .debug_abbrev  0x0000aaf2       0x9b ../lcdunit_ckplay_bsp/\libhal_bsp.a(alt_icache_flush.o)
 .debug_abbrev  0x0000ab8d      0x106 c:/develop/altera/13.1/nios2eds/bin/gnu/h-i686-mingw32/bin/../lib/gcc/nios2-elf/4.7.3/../../../../../H-i686-mingw32/nios2-elf/lib\libc.a(lib_a-atexit.o)
 .debug_abbrev  0x0000ac93      0x1c8 c:/develop/altera/13.1/nios2eds/bin/gnu/h-i686-mingw32/bin/../lib/gcc/nios2-elf/4.7.3/../../../../../H-i686-mingw32/nios2-elf/lib\libc.a(lib_a-exit.o)
 .debug_abbrev  0x0000ae5b       0x7f c:/develop/altera/13.1/nios2eds/bin/gnu/h-i686-mingw32/bin/../lib/gcc/nios2-elf/4.7.3/../../../../../H-i686-mingw32/nios2-elf/lib\libc.a(lib_a-memcmp.o)
 .debug_abbrev  0x0000aeda      0x211 c:/develop/altera/13.1/nios2eds/bin/gnu/h-i686-mingw32/bin/../lib/gcc/nios2-elf/4.7.3/../../../../../H-i686-mingw32/nios2-elf/lib\libc.a(lib_a-__atexit.o)
 .debug_abbrev  0x0000b0eb      0x203 c:/develop/altera/13.1/nios2eds/bin/gnu/h-i686-mingw32/bin/../lib/gcc/nios2-elf/4.7.3/../../../../../H-i686-mingw32/nios2-elf/lib\libc.a(lib_a-__call_atexit.o)
 .debug_abbrev  0x0000b2ee       0xa6 ../lcdunit_ckplay_bsp/\libhal_bsp.a(alt_exit.o)

.debug_line     0x00000000     0xd46b
 *(.debug_line)
 .debug_line    0x00000000       0x54 ../lcdunit_ckplay_bsp//obj/HAL/src/crt0.o
 .debug_line    0x00000054      0x270 obj/default/ckplay.o
 .debug_line    0x000002c4      0xdef obj/default/mmcfs/fatfs/ff.o
 .debug_line    0x000010b3      0x2a9 obj/default/mmcfs/fatfs/mmcbb.o
 .debug_line    0x0000135c       0xa0 obj/default/mmcfs/fatfs/option/cc932.o
 .debug_line    0x000013fc       0x5b obj/default/mmcfs/gettime.o
 .debug_line    0x00001457      0x113 obj/default/mmcfs/mmc_spi.o
 .debug_line    0x0000156a      0x2e7 obj/default/mmcfs/mmcfs.o
 .debug_line    0x00001851      0x195 obj/default/nd_lib/ILI9325.o
 .debug_line    0x000019e6      0x559 obj/default/nd_lib/nd_acm.o
 .debug_line    0x00001f3f      0x2de obj/default/nd_lib/nd_egl.o
 .debug_line    0x0000221d      0x17f obj/default/nd_lib/nd_acm_mcudecode.o
 .debug_line    0x0000239c       0xd3 c:/develop/altera/13.1/nios2eds/bin/gnu/h-i686-mingw32/bin/../lib/gcc/nios2-elf/4.7.3\libgcc.a(lib2-divmod.o)
 .debug_line    0x0000246f      0x207 c:/develop/altera/13.1/nios2eds/bin/gnu/h-i686-mingw32/bin/../lib/gcc/nios2-elf/4.7.3/../../../../../H-i686-mingw32/nios2-elf/lib\libc.a(lib_a-malloc.o)
 .debug_line    0x00002676      0x421 c:/develop/altera/13.1/nios2eds/bin/gnu/h-i686-mingw32/bin/../lib/gcc/nios2-elf/4.7.3/../../../../../H-i686-mingw32/nios2-elf/lib\libc.a(lib_a-mallocr.o)
 .debug_line    0x00002a97      0x13d c:/develop/altera/13.1/nios2eds/bin/gnu/h-i686-mingw32/bin/../lib/gcc/nios2-elf/4.7.3/../../../../../H-i686-mingw32/nios2-elf/lib\libc.a(lib_a-memcpy.o)
 .debug_line    0x00002bd4      0x1f1 c:/develop/altera/13.1/nios2eds/bin/gnu/h-i686-mingw32/bin/../lib/gcc/nios2-elf/4.7.3/../../../../../H-i686-mingw32/nios2-elf/lib\libc.a(lib_a-memset.o)
 .debug_line    0x00002dc5      0x218 c:/develop/altera/13.1/nios2eds/bin/gnu/h-i686-mingw32/bin/../lib/gcc/nios2-elf/4.7.3/../../../../../H-i686-mingw32/nios2-elf/lib\libc.a(lib_a-printf.o)
 .debug_line    0x00002fdd      0x203 c:/develop/altera/13.1/nios2eds/bin/gnu/h-i686-mingw32/bin/../lib/gcc/nios2-elf/4.7.3/../../../../../H-i686-mingw32/nios2-elf/lib\libc.a(lib_a-putchar.o)
 .debug_line    0x000031e0      0x235 c:/develop/altera/13.1/nios2eds/bin/gnu/h-i686-mingw32/bin/../lib/gcc/nios2-elf/4.7.3/../../../../../H-i686-mingw32/nios2-elf/lib\libc.a(lib_a-puts.o)
 .debug_line    0x00003415      0x212 c:/develop/altera/13.1/nios2eds/bin/gnu/h-i686-mingw32/bin/../lib/gcc/nios2-elf/4.7.3/../../../../../H-i686-mingw32/nios2-elf/lib\libc.a(lib_a-sbrkr.o)
 .debug_line    0x00003627      0x10b c:/develop/altera/13.1/nios2eds/bin/gnu/h-i686-mingw32/bin/../lib/gcc/nios2-elf/4.7.3/../../../../../H-i686-mingw32/nios2-elf/lib\libc.a(lib_a-strcpy.o)
 .debug_line    0x00003732      0x182 c:/develop/altera/13.1/nios2eds/bin/gnu/h-i686-mingw32/bin/../lib/gcc/nios2-elf/4.7.3/../../../../../H-i686-mingw32/nios2-elf/lib\libc.a(lib_a-strlen.o)
 .debug_line    0x000038b4      0xaf9 c:/develop/altera/13.1/nios2eds/bin/gnu/h-i686-mingw32/bin/../lib/gcc/nios2-elf/4.7.3/../../../../../H-i686-mingw32/nios2-elf/lib\libc.a(lib_a-vfprintf.o)
 .debug_line    0x000043ad      0x26b c:/develop/altera/13.1/nios2eds/bin/gnu/h-i686-mingw32/bin/../lib/gcc/nios2-elf/4.7.3/../../../../../H-i686-mingw32/nios2-elf/lib\libc.a(lib_a-wsetup.o)
 .debug_line    0x00004618      0x876 c:/develop/altera/13.1/nios2eds/bin/gnu/h-i686-mingw32/bin/../lib/gcc/nios2-elf/4.7.3/../../../../../H-i686-mingw32/nios2-elf/lib\libc.a(lib_a-dtoa.o)
 .debug_line    0x00004e8e      0x29c c:/develop/altera/13.1/nios2eds/bin/gnu/h-i686-mingw32/bin/../lib/gcc/nios2-elf/4.7.3/../../../../../H-i686-mingw32/nios2-elf/lib\libc.a(lib_a-fflush.o)
 .debug_line    0x0000512a      0x2e6 c:/develop/altera/13.1/nios2eds/bin/gnu/h-i686-mingw32/bin/../lib/gcc/nios2-elf/4.7.3/../../../../../H-i686-mingw32/nios2-elf/lib\libc.a(lib_a-findfp.o)
 .debug_line    0x00005410      0x311 c:/develop/altera/13.1/nios2eds/bin/gnu/h-i686-mingw32/bin/../lib/gcc/nios2-elf/4.7.3/../../../../../H-i686-mingw32/nios2-elf/lib\libc.a(lib_a-freer.o)
 .debug_line    0x00005721      0x360 c:/develop/altera/13.1/nios2eds/bin/gnu/h-i686-mingw32/bin/../lib/gcc/nios2-elf/4.7.3/../../../../../H-i686-mingw32/nios2-elf/lib\libc.a(lib_a-fvwrite.o)
 .debug_line    0x00005a81      0x259 c:/develop/altera/13.1/nios2eds/bin/gnu/h-i686-mingw32/bin/../lib/gcc/nios2-elf/4.7.3/../../../../../H-i686-mingw32/nios2-elf/lib\libc.a(lib_a-fwalk.o)
 .debug_line    0x00005cda      0x173 c:/develop/altera/13.1/nios2eds/bin/gnu/h-i686-mingw32/bin/../lib/gcc/nios2-elf/4.7.3/../../../../../H-i686-mingw32/nios2-elf/lib\libc.a(lib_a-impure.o)
 .debug_line    0x00005e4d       0x5d c:/develop/altera/13.1/nios2eds/bin/gnu/h-i686-mingw32/bin/../lib/gcc/nios2-elf/4.7.3/../../../../../H-i686-mingw32/nios2-elf/lib\libc.a(lib_a-int_errno.o)
 .debug_line    0x00005eaa      0x231 c:/develop/altera/13.1/nios2eds/bin/gnu/h-i686-mingw32/bin/../lib/gcc/nios2-elf/4.7.3/../../../../../H-i686-mingw32/nios2-elf/lib\libc.a(lib_a-locale.o)
 .debug_line    0x000060db      0x293 c:/develop/altera/13.1/nios2eds/bin/gnu/h-i686-mingw32/bin/../lib/gcc/nios2-elf/4.7.3/../../../../../H-i686-mingw32/nios2-elf/lib\libc.a(lib_a-makebuf.o)
 .debug_line    0x0000636e      0x1f1 c:/develop/altera/13.1/nios2eds/bin/gnu/h-i686-mingw32/bin/../lib/gcc/nios2-elf/4.7.3/../../../../../H-i686-mingw32/nios2-elf/lib\libc.a(lib_a-memchr.o)
 .debug_line    0x0000655f      0x1ed c:/develop/altera/13.1/nios2eds/bin/gnu/h-i686-mingw32/bin/../lib/gcc/nios2-elf/4.7.3/../../../../../H-i686-mingw32/nios2-elf/lib\libc.a(lib_a-memmove.o)
 .debug_line    0x0000674c      0x725 c:/develop/altera/13.1/nios2eds/bin/gnu/h-i686-mingw32/bin/../lib/gcc/nios2-elf/4.7.3/../../../../../H-i686-mingw32/nios2-elf/lib\libc.a(lib_a-mprec.o)
 .debug_line    0x00006e71      0x29c c:/develop/altera/13.1/nios2eds/bin/gnu/h-i686-mingw32/bin/../lib/gcc/nios2-elf/4.7.3/../../../../../H-i686-mingw32/nios2-elf/lib\libc.a(lib_a-putc.o)
 .debug_line    0x0000710d      0x330 c:/develop/altera/13.1/nios2eds/bin/gnu/h-i686-mingw32/bin/../lib/gcc/nios2-elf/4.7.3/../../../../../H-i686-mingw32/nios2-elf/lib\libc.a(lib_a-reallocr.o)
 .debug_line    0x0000743d      0x170 c:/develop/altera/13.1/nios2eds/bin/gnu/h-i686-mingw32/bin/../lib/gcc/nios2-elf/4.7.3/../../../../../H-i686-mingw32/nios2-elf/lib\libc.a(lib_a-s_isinfd.o)
 .debug_line    0x000075ad      0x170 c:/develop/altera/13.1/nios2eds/bin/gnu/h-i686-mingw32/bin/../lib/gcc/nios2-elf/4.7.3/../../../../../H-i686-mingw32/nios2-elf/lib\libc.a(lib_a-s_isnand.o)
 .debug_line    0x0000771d      0x245 c:/develop/altera/13.1/nios2eds/bin/gnu/h-i686-mingw32/bin/../lib/gcc/nios2-elf/4.7.3/../../../../../H-i686-mingw32/nios2-elf/lib\libc.a(lib_a-stdio.o)
 .debug_line    0x00007962      0x110 c:/develop/altera/13.1/nios2eds/bin/gnu/h-i686-mingw32/bin/../lib/gcc/nios2-elf/4.7.3/../../../../../H-i686-mingw32/nios2-elf/lib\libc.a(lib_a-strcmp.o)
 .debug_line    0x00007a72      0x272 c:/develop/altera/13.1/nios2eds/bin/gnu/h-i686-mingw32/bin/../lib/gcc/nios2-elf/4.7.3/../../../../../H-i686-mingw32/nios2-elf/lib\libc.a(lib_a-wbuf.o)
 .debug_line    0x00007ce4      0x213 c:/develop/altera/13.1/nios2eds/bin/gnu/h-i686-mingw32/bin/../lib/gcc/nios2-elf/4.7.3/../../../../../H-i686-mingw32/nios2-elf/lib\libc.a(lib_a-writer.o)
 .debug_line    0x00007ef7      0x1c9 c:/develop/altera/13.1/nios2eds/bin/gnu/h-i686-mingw32/bin/../lib/gcc/nios2-elf/4.7.3/../../../../../H-i686-mingw32/nios2-elf/lib\libc.a(lib_a-callocr.o)
 .debug_line    0x000080c0      0x213 c:/develop/altera/13.1/nios2eds/bin/gnu/h-i686-mingw32/bin/../lib/gcc/nios2-elf/4.7.3/../../../../../H-i686-mingw32/nios2-elf/lib\libc.a(lib_a-closer.o)
 .debug_line    0x000082d3      0x266 c:/develop/altera/13.1/nios2eds/bin/gnu/h-i686-mingw32/bin/../lib/gcc/nios2-elf/4.7.3/../../../../../H-i686-mingw32/nios2-elf/lib\libc.a(lib_a-fclose.o)
 .debug_line    0x00008539      0x21c c:/develop/altera/13.1/nios2eds/bin/gnu/h-i686-mingw32/bin/../lib/gcc/nios2-elf/4.7.3/../../../../../H-i686-mingw32/nios2-elf/lib\libc.a(lib_a-fstatr.o)
 .debug_line    0x00008755      0x214 c:/develop/altera/13.1/nios2eds/bin/gnu/h-i686-mingw32/bin/../lib/gcc/nios2-elf/4.7.3/../../../../../H-i686-mingw32/nios2-elf/lib\libc.a(lib_a-isattyr.o)
 .debug_line    0x00008969      0x21e c:/develop/altera/13.1/nios2eds/bin/gnu/h-i686-mingw32/bin/../lib/gcc/nios2-elf/4.7.3/../../../../../H-i686-mingw32/nios2-elf/lib\libc.a(lib_a-lseekr.o)
 .debug_line    0x00008b87      0x212 c:/develop/altera/13.1/nios2eds/bin/gnu/h-i686-mingw32/bin/../lib/gcc/nios2-elf/4.7.3/../../../../../H-i686-mingw32/nios2-elf/lib\libc.a(lib_a-readr.o)
 .debug_line    0x00008d99      0x119 c:/develop/altera/13.1/nios2eds/bin/gnu/h-i686-mingw32/bin/../lib/gcc/nios2-elf/4.7.3\libgcc.a(_udivdi3.o)
 .debug_line    0x00008eb2      0x121 c:/develop/altera/13.1/nios2eds/bin/gnu/h-i686-mingw32/bin/../lib/gcc/nios2-elf/4.7.3\libgcc.a(_umoddi3.o)
 .debug_line    0x00008fd3      0x131 c:/develop/altera/13.1/nios2eds/bin/gnu/h-i686-mingw32/bin/../lib/gcc/nios2-elf/4.7.3\libgcc.a(_addsub_df.o)
 .debug_line    0x00009104      0x114 c:/develop/altera/13.1/nios2eds/bin/gnu/h-i686-mingw32/bin/../lib/gcc/nios2-elf/4.7.3\libgcc.a(_mul_df.o)
 .debug_line    0x00009218       0xce c:/develop/altera/13.1/nios2eds/bin/gnu/h-i686-mingw32/bin/../lib/gcc/nios2-elf/4.7.3\libgcc.a(_div_df.o)
 .debug_line    0x000092e6       0x6d c:/develop/altera/13.1/nios2eds/bin/gnu/h-i686-mingw32/bin/../lib/gcc/nios2-elf/4.7.3\libgcc.a(_eq_df.o)
 .debug_line    0x00009353       0x6d c:/develop/altera/13.1/nios2eds/bin/gnu/h-i686-mingw32/bin/../lib/gcc/nios2-elf/4.7.3\libgcc.a(_ne_df.o)
 .debug_line    0x000093c0       0x6e c:/develop/altera/13.1/nios2eds/bin/gnu/h-i686-mingw32/bin/../lib/gcc/nios2-elf/4.7.3\libgcc.a(_gt_df.o)
 .debug_line    0x0000942e       0x6e c:/develop/altera/13.1/nios2eds/bin/gnu/h-i686-mingw32/bin/../lib/gcc/nios2-elf/4.7.3\libgcc.a(_ge_df.o)
 .debug_line    0x0000949c       0x6d c:/develop/altera/13.1/nios2eds/bin/gnu/h-i686-mingw32/bin/../lib/gcc/nios2-elf/4.7.3\libgcc.a(_lt_df.o)
 .debug_line    0x00009509       0x94 c:/develop/altera/13.1/nios2eds/bin/gnu/h-i686-mingw32/bin/../lib/gcc/nios2-elf/4.7.3\libgcc.a(_si_to_df.o)
 .debug_line    0x0000959d       0x8d c:/develop/altera/13.1/nios2eds/bin/gnu/h-i686-mingw32/bin/../lib/gcc/nios2-elf/4.7.3\libgcc.a(_df_to_si.o)
 .debug_line    0x0000962a       0x51 c:/develop/altera/13.1/nios2eds/bin/gnu/h-i686-mingw32/bin/../lib/gcc/nios2-elf/4.7.3\libgcc.a(_thenan_df.o)
 .debug_line    0x0000967b       0x9e c:/develop/altera/13.1/nios2eds/bin/gnu/h-i686-mingw32/bin/../lib/gcc/nios2-elf/4.7.3\libgcc.a(_usi_to_df.o)
 .debug_line    0x00009719       0x8b c:/develop/altera/13.1/nios2eds/bin/gnu/h-i686-mingw32/bin/../lib/gcc/nios2-elf/4.7.3\libgcc.a(_muldi3.o)
 .debug_line    0x000097a4       0x53 c:/develop/altera/13.1/nios2eds/bin/gnu/h-i686-mingw32/bin/../lib/gcc/nios2-elf/4.7.3\libgcc.a(_clz.o)
 .debug_line    0x000097f7       0x8c c:/develop/altera/13.1/nios2eds/bin/gnu/h-i686-mingw32/bin/../lib/gcc/nios2-elf/4.7.3\libgcc.a(_clzsi2.o)
 .debug_line    0x00009883       0xc7 c:/develop/altera/13.1/nios2eds/bin/gnu/h-i686-mingw32/bin/../lib/gcc/nios2-elf/4.7.3\libgcc.a(_pack_df.o)
 .debug_line    0x0000994a       0xa2 c:/develop/altera/13.1/nios2eds/bin/gnu/h-i686-mingw32/bin/../lib/gcc/nios2-elf/4.7.3\libgcc.a(_unpack_df.o)
 .debug_line    0x000099ec       0x96 c:/develop/altera/13.1/nios2eds/bin/gnu/h-i686-mingw32/bin/../lib/gcc/nios2-elf/4.7.3\libgcc.a(_fpcmp_parts_df.o)
 .debug_line    0x00009a82       0x77 c:/develop/altera/13.1/nios2eds/bin/gnu/h-i686-mingw32/bin/../lib/gcc/nios2-elf/4.7.3\libgcc.a(_lshrdi3.o)
 .debug_line    0x00009af9       0x75 c:/develop/altera/13.1/nios2eds/bin/gnu/h-i686-mingw32/bin/../lib/gcc/nios2-elf/4.7.3\libgcc.a(_ashldi3.o)
 .debug_line    0x00009b6e       0xeb ../lcdunit_ckplay_bsp/\libhal_bsp.a(alt_alarm_start.o)
 .debug_line    0x00009c59      0x18a ../lcdunit_ckplay_bsp/\libhal_bsp.a(alt_close.o)
 .debug_line    0x00009de3      0x11f ../lcdunit_ckplay_bsp/\libhal_bsp.a(alt_dev.o)
 .debug_line    0x00009f02       0x51 ../lcdunit_ckplay_bsp/\libhal_bsp.a(alt_errno.o)
 .debug_line    0x00009f53       0xc4 ../lcdunit_ckplay_bsp/\libhal_bsp.a(alt_fs_reg.o)
 .debug_line    0x0000a017      0x172 ../lcdunit_ckplay_bsp/\libhal_bsp.a(alt_fstat.o)
 .debug_line    0x0000a189      0x17c ../lcdunit_ckplay_bsp/\libhal_bsp.a(alt_isatty.o)
 .debug_line    0x0000a305       0x92 ../lcdunit_ckplay_bsp/\libhal_bsp.a(alt_load.o)
 .debug_line    0x0000a397      0x179 ../lcdunit_ckplay_bsp/\libhal_bsp.a(alt_lseek.o)
 .debug_line    0x0000a510      0x1cb ../lcdunit_ckplay_bsp/\libhal_bsp.a(alt_main.o)
 .debug_line    0x0000a6db      0x14f ../lcdunit_ckplay_bsp/\libhal_bsp.a(alt_malloc_lock.o)
 .debug_line    0x0000a82a      0x20a ../lcdunit_ckplay_bsp/\libhal_bsp.a(alt_read.o)
 .debug_line    0x0000aa34       0xac ../lcdunit_ckplay_bsp/\libhal_bsp.a(alt_release_fd.o)
 .debug_line    0x0000aae0      0x115 ../lcdunit_ckplay_bsp/\libhal_bsp.a(alt_sbrk.o)
 .debug_line    0x0000abf5      0x12a ../lcdunit_ckplay_bsp/\libhal_bsp.a(alt_tick.o)
 .debug_line    0x0000ad1f       0xe7 ../lcdunit_ckplay_bsp/\libhal_bsp.a(alt_uncached_free.o)
 .debug_line    0x0000ae06      0x17f ../lcdunit_ckplay_bsp/\libhal_bsp.a(alt_uncached_malloc.o)
 .debug_line    0x0000af85       0xd6 ../lcdunit_ckplay_bsp/\libhal_bsp.a(alt_usleep.o)
 .debug_line    0x0000b05b      0x202 ../lcdunit_ckplay_bsp/\libhal_bsp.a(alt_write.o)
 .debug_line    0x0000b25d      0x16f ../lcdunit_ckplay_bsp/\libhal_bsp.a(alt_sys_init.o)
 .debug_line    0x0000b3cc      0x122 ../lcdunit_ckplay_bsp/\libhal_bsp.a(altera_avalon_jtag_uart_fd.o)
 .debug_line    0x0000b4ee      0x19f ../lcdunit_ckplay_bsp/\libhal_bsp.a(altera_avalon_jtag_uart_init.o)
 .debug_line    0x0000b68d      0x110 ../lcdunit_ckplay_bsp/\libhal_bsp.a(altera_avalon_jtag_uart_ioctl.o)
 .debug_line    0x0000b79d      0x171 ../lcdunit_ckplay_bsp/\libhal_bsp.a(altera_avalon_jtag_uart_read.o)
 .debug_line    0x0000b90e      0x192 ../lcdunit_ckplay_bsp/\libhal_bsp.a(altera_avalon_jtag_uart_write.o)
 .debug_line    0x0000baa0       0xfe ../lcdunit_ckplay_bsp/\libhal_bsp.a(altera_avalon_timer_sc.o)
 .debug_line    0x0000bb9e       0x9f ../lcdunit_ckplay_bsp/\libhal_bsp.a(alt_busy_sleep.o)
 .debug_line    0x0000bc3d       0x63 ../lcdunit_ckplay_bsp/\libhal_bsp.a(alt_dcache_flush.o)
 .debug_line    0x0000bca0       0x4e ../lcdunit_ckplay_bsp/\libhal_bsp.a(alt_dcache_flush_all.o)
 .debug_line    0x0000bcee       0xd0 ../lcdunit_ckplay_bsp/\libhal_bsp.a(alt_dev_llist_insert.o)
 .debug_line    0x0000bdbe       0x59 ../lcdunit_ckplay_bsp/\libhal_bsp.a(alt_do_ctors.o)
 .debug_line    0x0000be17       0x59 ../lcdunit_ckplay_bsp/\libhal_bsp.a(alt_do_dtors.o)
 .debug_line    0x0000be70       0x87 ../lcdunit_ckplay_bsp/\libhal_bsp.a(alt_icache_flush_all.o)
 .debug_line    0x0000bef7       0xf1 ../lcdunit_ckplay_bsp/\libhal_bsp.a(alt_iic.o)
 .debug_line    0x0000bfe8       0xd3 ../lcdunit_ckplay_bsp/\libhal_bsp.a(alt_iic_isr_register.o)
 .debug_line    0x0000c0bb      0x172 ../lcdunit_ckplay_bsp/\libhal_bsp.a(alt_io_redirect.o)
 .debug_line    0x0000c22d       0x6b ../lcdunit_ckplay_bsp/\libhal_bsp.a(alt_irq_entry.o)
 .debug_line    0x0000c298       0xab ../lcdunit_ckplay_bsp/\libhal_bsp.a(alt_irq_handler.o)
 .debug_line    0x0000c343       0x50 ../lcdunit_ckplay_bsp/\libhal_bsp.a(alt_irq_vars.o)
 .debug_line    0x0000c393      0x112 ../lcdunit_ckplay_bsp/\libhal_bsp.a(alt_open.o)
 .debug_line    0x0000c4a5       0x50 ../lcdunit_ckplay_bsp/\libhal_bsp.a(altera_nios2_qsys_irq.o)
 .debug_line    0x0000c4f5       0xab ../lcdunit_ckplay_bsp/\libhal_bsp.a(alt_exception_entry.o)
 .debug_line    0x0000c5a0      0x1a3 ../lcdunit_ckplay_bsp/\libhal_bsp.a(alt_find_dev.o)
 .debug_line    0x0000c743      0x1bd ../lcdunit_ckplay_bsp/\libhal_bsp.a(alt_find_file.o)
 .debug_line    0x0000c900       0xc6 ../lcdunit_ckplay_bsp/\libhal_bsp.a(alt_get_fd.o)
 .debug_line    0x0000c9c6       0x7a ../lcdunit_ckplay_bsp/\libhal_bsp.a(alt_icache_flush.o)
 .debug_line    0x0000ca40      0x16d c:/develop/altera/13.1/nios2eds/bin/gnu/h-i686-mingw32/bin/../lib/gcc/nios2-elf/4.7.3/../../../../../H-i686-mingw32/nios2-elf/lib\libc.a(lib_a-atexit.o)
 .debug_line    0x0000cbad      0x219 c:/develop/altera/13.1/nios2eds/bin/gnu/h-i686-mingw32/bin/../lib/gcc/nios2-elf/4.7.3/../../../../../H-i686-mingw32/nios2-elf/lib\libc.a(lib_a-exit.o)
 .debug_line    0x0000cdc6      0x18d c:/develop/altera/13.1/nios2eds/bin/gnu/h-i686-mingw32/bin/../lib/gcc/nios2-elf/4.7.3/../../../../../H-i686-mingw32/nios2-elf/lib\libc.a(lib_a-memcmp.o)
 .debug_line    0x0000cf53      0x250 c:/develop/altera/13.1/nios2eds/bin/gnu/h-i686-mingw32/bin/../lib/gcc/nios2-elf/4.7.3/../../../../../H-i686-mingw32/nios2-elf/lib\libc.a(lib_a-__atexit.o)
 .debug_line    0x0000d1a3      0x264 c:/develop/altera/13.1/nios2eds/bin/gnu/h-i686-mingw32/bin/../lib/gcc/nios2-elf/4.7.3/../../../../../H-i686-mingw32/nios2-elf/lib\libc.a(lib_a-__call_atexit.o)
 .debug_line    0x0000d407       0x64 ../lcdunit_ckplay_bsp/\libhal_bsp.a(alt_exit.o)

.debug_frame    0x00000000     0x22b8
 *(.debug_frame)
 .debug_frame   0x00000000       0x7c obj/default/ckplay.o
 .debug_frame   0x0000007c      0x49c obj/default/mmcfs/fatfs/ff.o
 .debug_frame   0x00000518      0x178 obj/default/mmcfs/fatfs/mmcbb.o
 .debug_frame   0x00000690       0x30 obj/default/mmcfs/fatfs/option/cc932.o
 .debug_frame   0x000006c0       0x20 obj/default/mmcfs/gettime.o
 .debug_frame   0x000006e0       0xe0 obj/default/mmcfs/mmc_spi.o
 .debug_frame   0x000007c0       0xc0 obj/default/mmcfs/mmcfs.o
 .debug_frame   0x00000880       0x60 obj/default/nd_lib/ILI9325.o
 .debug_frame   0x000008e0       0xc4 obj/default/nd_lib/nd_acm.o
 .debug_frame   0x000009a4      0x1e8 obj/default/nd_lib/nd_egl.o
 .debug_frame   0x00000b8c       0x70 c:/develop/altera/13.1/nios2eds/bin/gnu/h-i686-mingw32/bin/../lib/gcc/nios2-elf/4.7.3\libgcc.a(lib2-divmod.o)
 .debug_frame   0x00000bfc       0x30 c:/develop/altera/13.1/nios2eds/bin/gnu/h-i686-mingw32/bin/../lib/gcc/nios2-elf/4.7.3/../../../../../H-i686-mingw32/nios2-elf/lib\libc.a(lib_a-malloc.o)
 .debug_frame   0x00000c2c       0x38 c:/develop/altera/13.1/nios2eds/bin/gnu/h-i686-mingw32/bin/../lib/gcc/nios2-elf/4.7.3/../../../../../H-i686-mingw32/nios2-elf/lib\libc.a(lib_a-mallocr.o)
 .debug_frame   0x00000c64       0x20 c:/develop/altera/13.1/nios2eds/bin/gnu/h-i686-mingw32/bin/../lib/gcc/nios2-elf/4.7.3/../../../../../H-i686-mingw32/nios2-elf/lib\libc.a(lib_a-memcpy.o)
 .debug_frame   0x00000c84       0x20 c:/develop/altera/13.1/nios2eds/bin/gnu/h-i686-mingw32/bin/../lib/gcc/nios2-elf/4.7.3/../../../../../H-i686-mingw32/nios2-elf/lib\libc.a(lib_a-memset.o)
 .debug_frame   0x00000ca4       0x40 c:/develop/altera/13.1/nios2eds/bin/gnu/h-i686-mingw32/bin/../lib/gcc/nios2-elf/4.7.3/../../../../../H-i686-mingw32/nios2-elf/lib\libc.a(lib_a-printf.o)
 .debug_frame   0x00000ce4       0x30 c:/develop/altera/13.1/nios2eds/bin/gnu/h-i686-mingw32/bin/../lib/gcc/nios2-elf/4.7.3/../../../../../H-i686-mingw32/nios2-elf/lib\libc.a(lib_a-putchar.o)
 .debug_frame   0x00000d14       0x3c c:/develop/altera/13.1/nios2eds/bin/gnu/h-i686-mingw32/bin/../lib/gcc/nios2-elf/4.7.3/../../../../../H-i686-mingw32/nios2-elf/lib\libc.a(lib_a-puts.o)
 .debug_frame   0x00000d50       0x2c c:/develop/altera/13.1/nios2eds/bin/gnu/h-i686-mingw32/bin/../lib/gcc/nios2-elf/4.7.3/../../../../../H-i686-mingw32/nios2-elf/lib\libc.a(lib_a-sbrkr.o)
 .debug_frame   0x00000d7c       0x20 c:/develop/altera/13.1/nios2eds/bin/gnu/h-i686-mingw32/bin/../lib/gcc/nios2-elf/4.7.3/../../../../../H-i686-mingw32/nios2-elf/lib\libc.a(lib_a-strcpy.o)
 .debug_frame   0x00000d9c       0x20 c:/develop/altera/13.1/nios2eds/bin/gnu/h-i686-mingw32/bin/../lib/gcc/nios2-elf/4.7.3/../../../../../H-i686-mingw32/nios2-elf/lib\libc.a(lib_a-strlen.o)
 .debug_frame   0x00000dbc       0x64 c:/develop/altera/13.1/nios2eds/bin/gnu/h-i686-mingw32/bin/../lib/gcc/nios2-elf/4.7.3/../../../../../H-i686-mingw32/nios2-elf/lib\libc.a(lib_a-vfprintf.o)
 .debug_frame   0x00000e20       0x2c c:/develop/altera/13.1/nios2eds/bin/gnu/h-i686-mingw32/bin/../lib/gcc/nios2-elf/4.7.3/../../../../../H-i686-mingw32/nios2-elf/lib\libc.a(lib_a-wsetup.o)
 .debug_frame   0x00000e4c       0x64 c:/develop/altera/13.1/nios2eds/bin/gnu/h-i686-mingw32/bin/../lib/gcc/nios2-elf/4.7.3/../../../../../H-i686-mingw32/nios2-elf/lib\libc.a(lib_a-dtoa.o)
 .debug_frame   0x00000eb0       0x40 c:/develop/altera/13.1/nios2eds/bin/gnu/h-i686-mingw32/bin/../lib/gcc/nios2-elf/4.7.3/../../../../../H-i686-mingw32/nios2-elf/lib\libc.a(lib_a-fflush.o)
 .debug_frame   0x00000ef0      0x100 c:/develop/altera/13.1/nios2eds/bin/gnu/h-i686-mingw32/bin/../lib/gcc/nios2-elf/4.7.3/../../../../../H-i686-mingw32/nios2-elf/lib\libc.a(lib_a-findfp.o)
 .debug_frame   0x00000ff0       0x4c c:/develop/altera/13.1/nios2eds/bin/gnu/h-i686-mingw32/bin/../lib/gcc/nios2-elf/4.7.3/../../../../../H-i686-mingw32/nios2-elf/lib\libc.a(lib_a-freer.o)
 .debug_frame   0x0000103c       0x38 c:/develop/altera/13.1/nios2eds/bin/gnu/h-i686-mingw32/bin/../lib/gcc/nios2-elf/4.7.3/../../../../../H-i686-mingw32/nios2-elf/lib\libc.a(lib_a-fvwrite.o)
 .debug_frame   0x00001074       0x5c c:/develop/altera/13.1/nios2eds/bin/gnu/h-i686-mingw32/bin/../lib/gcc/nios2-elf/4.7.3/../../../../../H-i686-mingw32/nios2-elf/lib\libc.a(lib_a-fwalk.o)
 .debug_frame   0x000010d0       0x6c c:/develop/altera/13.1/nios2eds/bin/gnu/h-i686-mingw32/bin/../lib/gcc/nios2-elf/4.7.3/../../../../../H-i686-mingw32/nios2-elf/lib\libc.a(lib_a-locale.o)
 .debug_frame   0x0000113c       0x2c c:/develop/altera/13.1/nios2eds/bin/gnu/h-i686-mingw32/bin/../lib/gcc/nios2-elf/4.7.3/../../../../../H-i686-mingw32/nios2-elf/lib\libc.a(lib_a-makebuf.o)
 .debug_frame   0x00001168       0x20 c:/develop/altera/13.1/nios2eds/bin/gnu/h-i686-mingw32/bin/../lib/gcc/nios2-elf/4.7.3/../../../../../H-i686-mingw32/nios2-elf/lib\libc.a(lib_a-memchr.o)
 .debug_frame   0x00001188       0x20 c:/develop/altera/13.1/nios2eds/bin/gnu/h-i686-mingw32/bin/../lib/gcc/nios2-elf/4.7.3/../../../../../H-i686-mingw32/nios2-elf/lib\libc.a(lib_a-memmove.o)
 .debug_frame   0x000011a8      0x204 c:/develop/altera/13.1/nios2eds/bin/gnu/h-i686-mingw32/bin/../lib/gcc/nios2-elf/4.7.3/../../../../../H-i686-mingw32/nios2-elf/lib\libc.a(lib_a-mprec.o)
 .debug_frame   0x000013ac       0x48 c:/develop/altera/13.1/nios2eds/bin/gnu/h-i686-mingw32/bin/../lib/gcc/nios2-elf/4.7.3/../../../../../H-i686-mingw32/nios2-elf/lib\libc.a(lib_a-putc.o)
 .debug_frame   0x000013f4       0x38 c:/develop/altera/13.1/nios2eds/bin/gnu/h-i686-mingw32/bin/../lib/gcc/nios2-elf/4.7.3/../../../../../H-i686-mingw32/nios2-elf/lib\libc.a(lib_a-reallocr.o)
 .debug_frame   0x0000142c       0x20 c:/develop/altera/13.1/nios2eds/bin/gnu/h-i686-mingw32/bin/../lib/gcc/nios2-elf/4.7.3/../../../../../H-i686-mingw32/nios2-elf/lib\libc.a(lib_a-s_isinfd.o)
 .debug_frame   0x0000144c       0x20 c:/develop/altera/13.1/nios2eds/bin/gnu/h-i686-mingw32/bin/../lib/gcc/nios2-elf/4.7.3/../../../../../H-i686-mingw32/nios2-elf/lib\libc.a(lib_a-s_isnand.o)
 .debug_frame   0x0000146c       0x78 c:/develop/altera/13.1/nios2eds/bin/gnu/h-i686-mingw32/bin/../lib/gcc/nios2-elf/4.7.3/../../../../../H-i686-mingw32/nios2-elf/lib\libc.a(lib_a-stdio.o)
 .debug_frame   0x000014e4       0x20 c:/develop/altera/13.1/nios2eds/bin/gnu/h-i686-mingw32/bin/../lib/gcc/nios2-elf/4.7.3/../../../../../H-i686-mingw32/nios2-elf/lib\libc.a(lib_a-strcmp.o)
 .debug_frame   0x00001504       0x3c c:/develop/altera/13.1/nios2eds/bin/gnu/h-i686-mingw32/bin/../lib/gcc/nios2-elf/4.7.3/../../../../../H-i686-mingw32/nios2-elf/lib\libc.a(lib_a-wbuf.o)
 .debug_frame   0x00001540       0x2c c:/develop/altera/13.1/nios2eds/bin/gnu/h-i686-mingw32/bin/../lib/gcc/nios2-elf/4.7.3/../../../../../H-i686-mingw32/nios2-elf/lib\libc.a(lib_a-writer.o)
 .debug_frame   0x0000156c       0x28 c:/develop/altera/13.1/nios2eds/bin/gnu/h-i686-mingw32/bin/../lib/gcc/nios2-elf/4.7.3/../../../../../H-i686-mingw32/nios2-elf/lib\libc.a(lib_a-callocr.o)
 .debug_frame   0x00001594       0x2c c:/develop/altera/13.1/nios2eds/bin/gnu/h-i686-mingw32/bin/../lib/gcc/nios2-elf/4.7.3/../../../../../H-i686-mingw32/nios2-elf/lib\libc.a(lib_a-closer.o)
 .debug_frame   0x000015c0       0x3c c:/develop/altera/13.1/nios2eds/bin/gnu/h-i686-mingw32/bin/../lib/gcc/nios2-elf/4.7.3/../../../../../H-i686-mingw32/nios2-elf/lib\libc.a(lib_a-fclose.o)
 .debug_frame   0x000015fc       0x2c c:/develop/altera/13.1/nios2eds/bin/gnu/h-i686-mingw32/bin/../lib/gcc/nios2-elf/4.7.3/../../../../../H-i686-mingw32/nios2-elf/lib\libc.a(lib_a-fstatr.o)
 .debug_frame   0x00001628       0x2c c:/develop/altera/13.1/nios2eds/bin/gnu/h-i686-mingw32/bin/../lib/gcc/nios2-elf/4.7.3/../../../../../H-i686-mingw32/nios2-elf/lib\libc.a(lib_a-isattyr.o)
 .debug_frame   0x00001654       0x2c c:/develop/altera/13.1/nios2eds/bin/gnu/h-i686-mingw32/bin/../lib/gcc/nios2-elf/4.7.3/../../../../../H-i686-mingw32/nios2-elf/lib\libc.a(lib_a-lseekr.o)
 .debug_frame   0x00001680       0x2c c:/develop/altera/13.1/nios2eds/bin/gnu/h-i686-mingw32/bin/../lib/gcc/nios2-elf/4.7.3/../../../../../H-i686-mingw32/nios2-elf/lib\libc.a(lib_a-readr.o)
 .debug_frame   0x000016ac       0x38 c:/develop/altera/13.1/nios2eds/bin/gnu/h-i686-mingw32/bin/../lib/gcc/nios2-elf/4.7.3\libgcc.a(_udivdi3.o)
 .debug_frame   0x000016e4       0x38 c:/develop/altera/13.1/nios2eds/bin/gnu/h-i686-mingw32/bin/../lib/gcc/nios2-elf/4.7.3\libgcc.a(_umoddi3.o)
 .debug_frame   0x0000171c       0x50 c:/develop/altera/13.1/nios2eds/bin/gnu/h-i686-mingw32/bin/../lib/gcc/nios2-elf/4.7.3\libgcc.a(_addsub_df.o)
 .debug_frame   0x0000176c       0x38 c:/develop/altera/13.1/nios2eds/bin/gnu/h-i686-mingw32/bin/../lib/gcc/nios2-elf/4.7.3\libgcc.a(_mul_df.o)
 .debug_frame   0x000017a4       0x28 c:/develop/altera/13.1/nios2eds/bin/gnu/h-i686-mingw32/bin/../lib/gcc/nios2-elf/4.7.3\libgcc.a(_div_df.o)
 .debug_frame   0x000017cc       0x28 c:/develop/altera/13.1/nios2eds/bin/gnu/h-i686-mingw32/bin/../lib/gcc/nios2-elf/4.7.3\libgcc.a(_eq_df.o)
 .debug_frame   0x000017f4       0x28 c:/develop/altera/13.1/nios2eds/bin/gnu/h-i686-mingw32/bin/../lib/gcc/nios2-elf/4.7.3\libgcc.a(_ne_df.o)
 .debug_frame   0x0000181c       0x28 c:/develop/altera/13.1/nios2eds/bin/gnu/h-i686-mingw32/bin/../lib/gcc/nios2-elf/4.7.3\libgcc.a(_gt_df.o)
 .debug_frame   0x00001844       0x28 c:/develop/altera/13.1/nios2eds/bin/gnu/h-i686-mingw32/bin/../lib/gcc/nios2-elf/4.7.3\libgcc.a(_ge_df.o)
 .debug_frame   0x0000186c       0x28 c:/develop/altera/13.1/nios2eds/bin/gnu/h-i686-mingw32/bin/../lib/gcc/nios2-elf/4.7.3\libgcc.a(_lt_df.o)
 .debug_frame   0x00001894       0x28 c:/develop/altera/13.1/nios2eds/bin/gnu/h-i686-mingw32/bin/../lib/gcc/nios2-elf/4.7.3\libgcc.a(_si_to_df.o)
 .debug_frame   0x000018bc       0x28 c:/develop/altera/13.1/nios2eds/bin/gnu/h-i686-mingw32/bin/../lib/gcc/nios2-elf/4.7.3\libgcc.a(_df_to_si.o)
 .debug_frame   0x000018e4       0x28 c:/develop/altera/13.1/nios2eds/bin/gnu/h-i686-mingw32/bin/../lib/gcc/nios2-elf/4.7.3\libgcc.a(_usi_to_df.o)
 .debug_frame   0x0000190c       0x20 c:/develop/altera/13.1/nios2eds/bin/gnu/h-i686-mingw32/bin/../lib/gcc/nios2-elf/4.7.3\libgcc.a(_muldi3.o)
 .debug_frame   0x0000192c       0x20 c:/develop/altera/13.1/nios2eds/bin/gnu/h-i686-mingw32/bin/../lib/gcc/nios2-elf/4.7.3\libgcc.a(_clzsi2.o)
 .debug_frame   0x0000194c       0x34 c:/develop/altera/13.1/nios2eds/bin/gnu/h-i686-mingw32/bin/../lib/gcc/nios2-elf/4.7.3\libgcc.a(_pack_df.o)
 .debug_frame   0x00001980       0x20 c:/develop/altera/13.1/nios2eds/bin/gnu/h-i686-mingw32/bin/../lib/gcc/nios2-elf/4.7.3\libgcc.a(_unpack_df.o)
 .debug_frame   0x000019a0       0x20 c:/develop/altera/13.1/nios2eds/bin/gnu/h-i686-mingw32/bin/../lib/gcc/nios2-elf/4.7.3\libgcc.a(_fpcmp_parts_df.o)
 .debug_frame   0x000019c0       0x20 c:/develop/altera/13.1/nios2eds/bin/gnu/h-i686-mingw32/bin/../lib/gcc/nios2-elf/4.7.3\libgcc.a(_lshrdi3.o)
 .debug_frame   0x000019e0       0x20 c:/develop/altera/13.1/nios2eds/bin/gnu/h-i686-mingw32/bin/../lib/gcc/nios2-elf/4.7.3\libgcc.a(_ashldi3.o)
 .debug_frame   0x00001a00       0x20 ../lcdunit_ckplay_bsp/\libhal_bsp.a(alt_alarm_start.o)
 .debug_frame   0x00001a20       0x2c ../lcdunit_ckplay_bsp/\libhal_bsp.a(alt_close.o)
 .debug_frame   0x00001a4c       0x20 ../lcdunit_ckplay_bsp/\libhal_bsp.a(alt_dev.o)
 .debug_frame   0x00001a6c       0x20 ../lcdunit_ckplay_bsp/\libhal_bsp.a(alt_fs_reg.o)
 .debug_frame   0x00001a8c       0x28 ../lcdunit_ckplay_bsp/\libhal_bsp.a(alt_fstat.o)
 .debug_frame   0x00001ab4       0x28 ../lcdunit_ckplay_bsp/\libhal_bsp.a(alt_isatty.o)
 .debug_frame   0x00001adc       0x48 ../lcdunit_ckplay_bsp/\libhal_bsp.a(alt_load.o)
 .debug_frame   0x00001b24       0x28 ../lcdunit_ckplay_bsp/\libhal_bsp.a(alt_lseek.o)
 .debug_frame   0x00001b4c       0x28 ../lcdunit_ckplay_bsp/\libhal_bsp.a(alt_main.o)
 .debug_frame   0x00001b74       0x48 ../lcdunit_ckplay_bsp/\libhal_bsp.a(alt_malloc_lock.o)
 .debug_frame   0x00001bbc       0x28 ../lcdunit_ckplay_bsp/\libhal_bsp.a(alt_read.o)
 .debug_frame   0x00001be4       0x20 ../lcdunit_ckplay_bsp/\libhal_bsp.a(alt_release_fd.o)
 .debug_frame   0x00001c04       0x20 ../lcdunit_ckplay_bsp/\libhal_bsp.a(alt_sbrk.o)
 .debug_frame   0x00001c24       0x44 ../lcdunit_ckplay_bsp/\libhal_bsp.a(alt_tick.o)
 .debug_frame   0x00001c68       0x20 ../lcdunit_ckplay_bsp/\libhal_bsp.a(alt_uncached_free.o)
 .debug_frame   0x00001c88       0x2c ../lcdunit_ckplay_bsp/\libhal_bsp.a(alt_uncached_malloc.o)
 .debug_frame   0x00001cb4       0x2c ../lcdunit_ckplay_bsp/\libhal_bsp.a(alt_usleep.o)
 .debug_frame   0x00001ce0       0x28 ../lcdunit_ckplay_bsp/\libhal_bsp.a(alt_write.o)
 .debug_frame   0x00001d08       0x40 ../lcdunit_ckplay_bsp/\libhal_bsp.a(alt_sys_init.o)
 .debug_frame   0x00001d48       0x50 ../lcdunit_ckplay_bsp/\libhal_bsp.a(altera_avalon_jtag_uart_fd.o)
 .debug_frame   0x00001d98       0x58 ../lcdunit_ckplay_bsp/\libhal_bsp.a(altera_avalon_jtag_uart_init.o)
 .debug_frame   0x00001df0       0x20 ../lcdunit_ckplay_bsp/\libhal_bsp.a(altera_avalon_jtag_uart_ioctl.o)
 .debug_frame   0x00001e10       0x38 ../lcdunit_ckplay_bsp/\libhal_bsp.a(altera_avalon_jtag_uart_read.o)
 .debug_frame   0x00001e48       0x38 ../lcdunit_ckplay_bsp/\libhal_bsp.a(altera_avalon_jtag_uart_write.o)
 .debug_frame   0x00001e80       0x40 ../lcdunit_ckplay_bsp/\libhal_bsp.a(altera_avalon_timer_sc.o)
 .debug_frame   0x00001ec0       0x28 ../lcdunit_ckplay_bsp/\libhal_bsp.a(alt_busy_sleep.o)
 .debug_frame   0x00001ee8       0x20 ../lcdunit_ckplay_bsp/\libhal_bsp.a(alt_dcache_flush.o)
 .debug_frame   0x00001f08       0x20 ../lcdunit_ckplay_bsp/\libhal_bsp.a(alt_dcache_flush_all.o)
 .debug_frame   0x00001f28       0x48 ../lcdunit_ckplay_bsp/\libhal_bsp.a(alt_dev_llist_insert.o)
 .debug_frame   0x00001f70       0x2c ../lcdunit_ckplay_bsp/\libhal_bsp.a(alt_do_ctors.o)
 .debug_frame   0x00001f9c       0x2c ../lcdunit_ckplay_bsp/\libhal_bsp.a(alt_do_dtors.o)
 .debug_frame   0x00001fc8       0x20 ../lcdunit_ckplay_bsp/\libhal_bsp.a(alt_icache_flush_all.o)
 .debug_frame   0x00001fe8       0x50 ../lcdunit_ckplay_bsp/\libhal_bsp.a(alt_iic.o)
 .debug_frame   0x00002038       0x28 ../lcdunit_ckplay_bsp/\libhal_bsp.a(alt_iic_isr_register.o)
 .debug_frame   0x00002060       0x4c ../lcdunit_ckplay_bsp/\libhal_bsp.a(alt_io_redirect.o)
 .debug_frame   0x000020ac       0x28 ../lcdunit_ckplay_bsp/\libhal_bsp.a(alt_irq_handler.o)
 .debug_frame   0x000020d4       0x34 ../lcdunit_ckplay_bsp/\libhal_bsp.a(alt_open.o)
 .debug_frame   0x00002108       0x20 ../lcdunit_ckplay_bsp/\libhal_bsp.a(altera_nios2_qsys_irq.o)
 .debug_frame   0x00002128       0x30 ../lcdunit_ckplay_bsp/\libhal_bsp.a(alt_find_dev.o)
 .debug_frame   0x00002158       0x34 ../lcdunit_ckplay_bsp/\libhal_bsp.a(alt_find_file.o)
 .debug_frame   0x0000218c       0x20 ../lcdunit_ckplay_bsp/\libhal_bsp.a(alt_get_fd.o)
 .debug_frame   0x000021ac       0x20 ../lcdunit_ckplay_bsp/\libhal_bsp.a(alt_icache_flush.o)
 .debug_frame   0x000021cc       0x20 c:/develop/altera/13.1/nios2eds/bin/gnu/h-i686-mingw32/bin/../lib/gcc/nios2-elf/4.7.3/../../../../../H-i686-mingw32/nios2-elf/lib\libc.a(lib_a-atexit.o)
 .debug_frame   0x000021ec       0x28 c:/develop/altera/13.1/nios2eds/bin/gnu/h-i686-mingw32/bin/../lib/gcc/nios2-elf/4.7.3/../../../../../H-i686-mingw32/nios2-elf/lib\libc.a(lib_a-exit.o)
 .debug_frame   0x00002214       0x20 c:/develop/altera/13.1/nios2eds/bin/gnu/h-i686-mingw32/bin/../lib/gcc/nios2-elf/4.7.3/../../../../../H-i686-mingw32/nios2-elf/lib\libc.a(lib_a-memcmp.o)
 .debug_frame   0x00002234       0x2c c:/develop/altera/13.1/nios2eds/bin/gnu/h-i686-mingw32/bin/../lib/gcc/nios2-elf/4.7.3/../../../../../H-i686-mingw32/nios2-elf/lib\libc.a(lib_a-__atexit.o)
 .debug_frame   0x00002260       0x38 c:/develop/altera/13.1/nios2eds/bin/gnu/h-i686-mingw32/bin/../lib/gcc/nios2-elf/4.7.3/../../../../../H-i686-mingw32/nios2-elf/lib\libc.a(lib_a-__call_atexit.o)
 .debug_frame   0x00002298       0x20 ../lcdunit_ckplay_bsp/\libhal_bsp.a(alt_exit.o)

.debug_str      0x00000000     0x3b82
 *(.debug_str)
 .debug_str     0x00000000      0x3c8 obj/default/ckplay.o
                                0x45e (size before relaxing)
 .debug_str     0x000003c8      0x2c9 obj/default/mmcfs/fatfs/ff.o
                                0x628 (size before relaxing)
 .debug_str     0x00000691      0x17a obj/default/mmcfs/fatfs/mmcbb.o
                                0x313 (size before relaxing)
 .debug_str     0x0000080b       0x41 obj/default/mmcfs/fatfs/option/cc932.o
                                0x120 (size before relaxing)
 .debug_str     0x0000084c       0x10 obj/default/mmcfs/gettime.o
                                0x110 (size before relaxing)
 .debug_str     0x0000085c       0x57 obj/default/mmcfs/mmc_spi.o
                                0x23c (size before relaxing)
 .debug_str     0x000008b3      0x245 obj/default/mmcfs/mmcfs.o
                                0x5e2 (size before relaxing)
 .debug_str     0x00000af8       0x4f obj/default/nd_lib/ILI9325.o
                                0x16c (size before relaxing)
 .debug_str     0x00000b47      0x244 obj/default/nd_lib/nd_acm.o
                                0x5ef (size before relaxing)
 .debug_str     0x00000d8b      0x1ef obj/default/nd_lib/nd_egl.o
                                0x367 (size before relaxing)
 .debug_str     0x00000f7a      0x104 c:/develop/altera/13.1/nios2eds/bin/gnu/h-i686-mingw32/bin/../lib/gcc/nios2-elf/4.7.3\libgcc.a(lib2-divmod.o)
                                0x15b (size before relaxing)
 .debug_str     0x0000107e      0x40c c:/develop/altera/13.1/nios2eds/bin/gnu/h-i686-mingw32/bin/../lib/gcc/nios2-elf/4.7.3/../../../../../H-i686-mingw32/nios2-elf/lib\libc.a(lib_a-malloc.o)
                                0x53a (size before relaxing)
 .debug_str     0x0000148a      0x228 c:/develop/altera/13.1/nios2eds/bin/gnu/h-i686-mingw32/bin/../lib/gcc/nios2-elf/4.7.3/../../../../../H-i686-mingw32/nios2-elf/lib\libc.a(lib_a-mallocr.o)
                                0x735 (size before relaxing)
 .debug_str     0x000016b2       0xf1 c:/develop/altera/13.1/nios2eds/bin/gnu/h-i686-mingw32/bin/../lib/gcc/nios2-elf/4.7.3/../../../../../H-i686-mingw32/nios2-elf/lib\libc.a(lib_a-memcpy.o)
                                0x126 (size before relaxing)
 .debug_str     0x000017a3       0x4f c:/develop/altera/13.1/nios2eds/bin/gnu/h-i686-mingw32/bin/../lib/gcc/nios2-elf/4.7.3/../../../../../H-i686-mingw32/nios2-elf/lib\libc.a(lib_a-memset.o)
                                0x18a (size before relaxing)
 .debug_str     0x000017f2      0x11e c:/develop/altera/13.1/nios2eds/bin/gnu/h-i686-mingw32/bin/../lib/gcc/nios2-elf/4.7.3/../../../../../H-i686-mingw32/nios2-elf/lib\libc.a(lib_a-printf.o)
                                0x571 (size before relaxing)
 .debug_str     0x00001910       0x4e c:/develop/altera/13.1/nios2eds/bin/gnu/h-i686-mingw32/bin/../lib/gcc/nios2-elf/4.7.3/../../../../../H-i686-mingw32/nios2-elf/lib\libc.a(lib_a-putchar.o)
                                0x528 (size before relaxing)
 .debug_str     0x0000195e       0x89 c:/develop/altera/13.1/nios2eds/bin/gnu/h-i686-mingw32/bin/../lib/gcc/nios2-elf/4.7.3/../../../../../H-i686-mingw32/nios2-elf/lib\libc.a(lib_a-puts.o)
                                0x56e (size before relaxing)
 .debug_str     0x000019e7       0xd1 c:/develop/altera/13.1/nios2eds/bin/gnu/h-i686-mingw32/bin/../lib/gcc/nios2-elf/4.7.3/../../../../../H-i686-mingw32/nios2-elf/lib\libc.a(lib_a-sbrkr.o)
                                0x51c (size before relaxing)
 .debug_str     0x00001ab8       0x3b c:/develop/altera/13.1/nios2eds/bin/gnu/h-i686-mingw32/bin/../lib/gcc/nios2-elf/4.7.3/../../../../../H-i686-mingw32/nios2-elf/lib\libc.a(lib_a-strcpy.o)
                                0x191 (size before relaxing)
 .debug_str     0x00001af3       0x3b c:/develop/altera/13.1/nios2eds/bin/gnu/h-i686-mingw32/bin/../lib/gcc/nios2-elf/4.7.3/../../../../../H-i686-mingw32/nios2-elf/lib\libc.a(lib_a-strlen.o)
                                0x189 (size before relaxing)
 .debug_str     0x00001b2e      0x289 c:/develop/altera/13.1/nios2eds/bin/gnu/h-i686-mingw32/bin/../lib/gcc/nios2-elf/4.7.3/../../../../../H-i686-mingw32/nios2-elf/lib\libc.a(lib_a-vfprintf.o)
                                0x888 (size before relaxing)
 .debug_str     0x00001db7       0x47 c:/develop/altera/13.1/nios2eds/bin/gnu/h-i686-mingw32/bin/../lib/gcc/nios2-elf/4.7.3/../../../../../H-i686-mingw32/nios2-elf/lib\libc.a(lib_a-wsetup.o)
                                0x535 (size before relaxing)
 .debug_str     0x00001dfe      0x157 c:/develop/altera/13.1/nios2eds/bin/gnu/h-i686-mingw32/bin/../lib/gcc/nios2-elf/4.7.3/../../../../../H-i686-mingw32/nios2-elf/lib\libc.a(lib_a-dtoa.o)
                                0x678 (size before relaxing)
 .debug_str     0x00001f55       0x5b c:/develop/altera/13.1/nios2eds/bin/gnu/h-i686-mingw32/bin/../lib/gcc/nios2-elf/4.7.3/../../../../../H-i686-mingw32/nios2-elf/lib\libc.a(lib_a-fflush.o)
                                0x553 (size before relaxing)
 .debug_str     0x00001fb0       0xfa c:/develop/altera/13.1/nios2eds/bin/gnu/h-i686-mingw32/bin/../lib/gcc/nios2-elf/4.7.3/../../../../../H-i686-mingw32/nios2-elf/lib\libc.a(lib_a-findfp.o)
                                0x61f (size before relaxing)
 .debug_str     0x000020aa       0x34 c:/develop/altera/13.1/nios2eds/bin/gnu/h-i686-mingw32/bin/../lib/gcc/nios2-elf/4.7.3/../../../../../H-i686-mingw32/nios2-elf/lib\libc.a(lib_a-freer.o)
                                0x67f (size before relaxing)
 .debug_str     0x000020de       0x6c c:/develop/altera/13.1/nios2eds/bin/gnu/h-i686-mingw32/bin/../lib/gcc/nios2-elf/4.7.3/../../../../../H-i686-mingw32/nios2-elf/lib\libc.a(lib_a-fvwrite.o)
                                0x5b8 (size before relaxing)
 .debug_str     0x0000214a       0x5e c:/develop/altera/13.1/nios2eds/bin/gnu/h-i686-mingw32/bin/../lib/gcc/nios2-elf/4.7.3/../../../../../H-i686-mingw32/nios2-elf/lib\libc.a(lib_a-fwalk.o)
                                0x567 (size before relaxing)
 .debug_str     0x000021a8       0x46 c:/develop/altera/13.1/nios2eds/bin/gnu/h-i686-mingw32/bin/../lib/gcc/nios2-elf/4.7.3/../../../../../H-i686-mingw32/nios2-elf/lib\libc.a(lib_a-impure.o)
                                0x526 (size before relaxing)
 .debug_str     0x000021ee       0x3d c:/develop/altera/13.1/nios2eds/bin/gnu/h-i686-mingw32/bin/../lib/gcc/nios2-elf/4.7.3/../../../../../H-i686-mingw32/nios2-elf/lib\libc.a(lib_a-int_errno.o)
                                0x16f (size before relaxing)
 .debug_str     0x0000222b      0x14c c:/develop/altera/13.1/nios2eds/bin/gnu/h-i686-mingw32/bin/../lib/gcc/nios2-elf/4.7.3/../../../../../H-i686-mingw32/nios2-elf/lib\libc.a(lib_a-locale.o)
                                0x6bc (size before relaxing)
 .debug_str     0x00002377       0x59 c:/develop/altera/13.1/nios2eds/bin/gnu/h-i686-mingw32/bin/../lib/gcc/nios2-elf/4.7.3/../../../../../H-i686-mingw32/nios2-elf/lib\libc.a(lib_a-makebuf.o)
                                0x62f (size before relaxing)
 .debug_str     0x000023d0       0x49 c:/develop/altera/13.1/nios2eds/bin/gnu/h-i686-mingw32/bin/../lib/gcc/nios2-elf/4.7.3/../../../../../H-i686-mingw32/nios2-elf/lib\libc.a(lib_a-memchr.o)
                                0x197 (size before relaxing)
 .debug_str     0x00002419       0x45 c:/develop/altera/13.1/nios2eds/bin/gnu/h-i686-mingw32/bin/../lib/gcc/nios2-elf/4.7.3/../../../../../H-i686-mingw32/nios2-elf/lib\libc.a(lib_a-memmove.o)
                                0x1a9 (size before relaxing)
 .debug_str     0x0000245e       0xa5 c:/develop/altera/13.1/nios2eds/bin/gnu/h-i686-mingw32/bin/../lib/gcc/nios2-elf/4.7.3/../../../../../H-i686-mingw32/nios2-elf/lib\libc.a(lib_a-mprec.o)
                                0x632 (size before relaxing)
 .debug_str     0x00002503       0x47 c:/develop/altera/13.1/nios2eds/bin/gnu/h-i686-mingw32/bin/../lib/gcc/nios2-elf/4.7.3/../../../../../H-i686-mingw32/nios2-elf/lib\libc.a(lib_a-putc.o)
                                0x530 (size before relaxing)
 .debug_str     0x0000254a       0x4e c:/develop/altera/13.1/nios2eds/bin/gnu/h-i686-mingw32/bin/../lib/gcc/nios2-elf/4.7.3/../../../../../H-i686-mingw32/nios2-elf/lib\libc.a(lib_a-reallocr.o)
                                0x607 (size before relaxing)
 .debug_str     0x00002598       0xd6 c:/develop/altera/13.1/nios2eds/bin/gnu/h-i686-mingw32/bin/../lib/gcc/nios2-elf/4.7.3/../../../../../H-i686-mingw32/nios2-elf/lib\libc.a(lib_a-s_isinfd.o)
                                0x1a1 (size before relaxing)
 .debug_str     0x0000266e       0x3d c:/develop/altera/13.1/nios2eds/bin/gnu/h-i686-mingw32/bin/../lib/gcc/nios2-elf/4.7.3/../../../../../H-i686-mingw32/nios2-elf/lib\libc.a(lib_a-s_isnand.o)
                                0x1a1 (size before relaxing)
 .debug_str     0x000026ab       0x8e c:/develop/altera/13.1/nios2eds/bin/gnu/h-i686-mingw32/bin/../lib/gcc/nios2-elf/4.7.3/../../../../../H-i686-mingw32/nios2-elf/lib\libc.a(lib_a-stdio.o)
                                0x570 (size before relaxing)
 .debug_str     0x00002739       0x3b c:/develop/altera/13.1/nios2eds/bin/gnu/h-i686-mingw32/bin/../lib/gcc/nios2-elf/4.7.3/../../../../../H-i686-mingw32/nios2-elf/lib\libc.a(lib_a-strcmp.o)
                                0x16f (size before relaxing)
 .debug_str     0x00002774       0x40 c:/develop/altera/13.1/nios2eds/bin/gnu/h-i686-mingw32/bin/../lib/gcc/nios2-elf/4.7.3/../../../../../H-i686-mingw32/nios2-elf/lib\libc.a(lib_a-wbuf.o)
                                0x53a (size before relaxing)
 .debug_str     0x000027b4       0x3a c:/develop/altera/13.1/nios2eds/bin/gnu/h-i686-mingw32/bin/../lib/gcc/nios2-elf/4.7.3/../../../../../H-i686-mingw32/nios2-elf/lib\libc.a(lib_a-writer.o)
                                0x520 (size before relaxing)
 .debug_str     0x000027ee        0xf c:/develop/altera/13.1/nios2eds/bin/gnu/h-i686-mingw32/bin/../lib/gcc/nios2-elf/4.7.3/../../../../../H-i686-mingw32/nios2-elf/lib\libc.a(lib_a-callocr.o)
                                0x55f (size before relaxing)
 .debug_str     0x000027fd       0x3a c:/develop/altera/13.1/nios2eds/bin/gnu/h-i686-mingw32/bin/../lib/gcc/nios2-elf/4.7.3/../../../../../H-i686-mingw32/nios2-elf/lib\libc.a(lib_a-closer.o)
                                0x510 (size before relaxing)
 .debug_str     0x00002837       0x4b c:/develop/altera/13.1/nios2eds/bin/gnu/h-i686-mingw32/bin/../lib/gcc/nios2-elf/4.7.3/../../../../../H-i686-mingw32/nios2-elf/lib\libc.a(lib_a-fclose.o)
                                0x562 (size before relaxing)
 .debug_str     0x00002882       0x40 c:/develop/altera/13.1/nios2eds/bin/gnu/h-i686-mingw32/bin/../lib/gcc/nios2-elf/4.7.3/../../../../../H-i686-mingw32/nios2-elf/lib\libc.a(lib_a-fstatr.o)
                                0x603 (size before relaxing)
 .debug_str     0x000028c2       0x42 c:/develop/altera/13.1/nios2eds/bin/gnu/h-i686-mingw32/bin/../lib/gcc/nios2-elf/4.7.3/../../../../../H-i686-mingw32/nios2-elf/lib\libc.a(lib_a-isattyr.o)
                                0x513 (size before relaxing)
 .debug_str     0x00002904       0x3a c:/develop/altera/13.1/nios2eds/bin/gnu/h-i686-mingw32/bin/../lib/gcc/nios2-elf/4.7.3/../../../../../H-i686-mingw32/nios2-elf/lib\libc.a(lib_a-lseekr.o)
                                0x524 (size before relaxing)
 .debug_str     0x0000293e       0x39 c:/develop/altera/13.1/nios2eds/bin/gnu/h-i686-mingw32/bin/../lib/gcc/nios2-elf/4.7.3/../../../../../H-i686-mingw32/nios2-elf/lib\libc.a(lib_a-readr.o)
                                0x51d (size before relaxing)
 .debug_str     0x00002977       0xd5 c:/develop/altera/13.1/nios2eds/bin/gnu/h-i686-mingw32/bin/../lib/gcc/nios2-elf/4.7.3\libgcc.a(_udivdi3.o)
                                0x1f6 (size before relaxing)
 .debug_str     0x00002a4c        0xa c:/develop/altera/13.1/nios2eds/bin/gnu/h-i686-mingw32/bin/../lib/gcc/nios2-elf/4.7.3\libgcc.a(_umoddi3.o)
                                0x1f6 (size before relaxing)
 .debug_str     0x00002a56      0x16f c:/develop/altera/13.1/nios2eds/bin/gnu/h-i686-mingw32/bin/../lib/gcc/nios2-elf/4.7.3\libgcc.a(_addsub_df.o)
                                0x2a9 (size before relaxing)
 .debug_str     0x00002bc5       0x40 c:/develop/altera/13.1/nios2eds/bin/gnu/h-i686-mingw32/bin/../lib/gcc/nios2-elf/4.7.3\libgcc.a(_mul_df.o)
                                0x27b (size before relaxing)
 .debug_str     0x00002c05       0x35 c:/develop/altera/13.1/nios2eds/bin/gnu/h-i686-mingw32/bin/../lib/gcc/nios2-elf/4.7.3\libgcc.a(_div_df.o)
                                0x26b (size before relaxing)
 .debug_str     0x00002c3a       0x20 c:/develop/altera/13.1/nios2eds/bin/gnu/h-i686-mingw32/bin/../lib/gcc/nios2-elf/4.7.3\libgcc.a(_eq_df.o)
                                0x238 (size before relaxing)
 .debug_str     0x00002c5a        0x8 c:/develop/altera/13.1/nios2eds/bin/gnu/h-i686-mingw32/bin/../lib/gcc/nios2-elf/4.7.3\libgcc.a(_ne_df.o)
                                0x238 (size before relaxing)
 .debug_str     0x00002c62        0x8 c:/develop/altera/13.1/nios2eds/bin/gnu/h-i686-mingw32/bin/../lib/gcc/nios2-elf/4.7.3\libgcc.a(_gt_df.o)
                                0x238 (size before relaxing)
 .debug_str     0x00002c6a        0x8 c:/develop/altera/13.1/nios2eds/bin/gnu/h-i686-mingw32/bin/../lib/gcc/nios2-elf/4.7.3\libgcc.a(_ge_df.o)
                                0x238 (size before relaxing)
 .debug_str     0x00002c72        0x8 c:/develop/altera/13.1/nios2eds/bin/gnu/h-i686-mingw32/bin/../lib/gcc/nios2-elf/4.7.3\libgcc.a(_lt_df.o)
                                0x238 (size before relaxing)
 .debug_str     0x00002c7a       0x21 c:/develop/altera/13.1/nios2eds/bin/gnu/h-i686-mingw32/bin/../lib/gcc/nios2-elf/4.7.3\libgcc.a(_si_to_df.o)
                                0x20e (size before relaxing)
 .debug_str     0x00002c9b        0xa c:/develop/altera/13.1/nios2eds/bin/gnu/h-i686-mingw32/bin/../lib/gcc/nios2-elf/4.7.3\libgcc.a(_df_to_si.o)
                                0x230 (size before relaxing)
 .debug_str     0x00000000      0x1c1 c:/develop/altera/13.1/nios2eds/bin/gnu/h-i686-mingw32/bin/../lib/gcc/nios2-elf/4.7.3\libgcc.a(_thenan_df.o)
 .debug_str     0x00002ca5       0x14 c:/develop/altera/13.1/nios2eds/bin/gnu/h-i686-mingw32/bin/../lib/gcc/nios2-elf/4.7.3\libgcc.a(_usi_to_df.o)
                                0x20a (size before relaxing)
 .debug_str     0x00002cb9        0x9 c:/develop/altera/13.1/nios2eds/bin/gnu/h-i686-mingw32/bin/../lib/gcc/nios2-elf/4.7.3\libgcc.a(_muldi3.o)
                                0x1a2 (size before relaxing)
 .debug_str     0x00000000      0x160 c:/develop/altera/13.1/nios2eds/bin/gnu/h-i686-mingw32/bin/../lib/gcc/nios2-elf/4.7.3\libgcc.a(_clz.o)
 .debug_str     0x00000000      0x17d c:/develop/altera/13.1/nios2eds/bin/gnu/h-i686-mingw32/bin/../lib/gcc/nios2-elf/4.7.3\libgcc.a(_clzsi2.o)
 .debug_str     0x00002cc2        0x7 c:/develop/altera/13.1/nios2eds/bin/gnu/h-i686-mingw32/bin/../lib/gcc/nios2-elf/4.7.3\libgcc.a(_pack_df.o)
                                0x224 (size before relaxing)
 .debug_str     0x00000000      0x206 c:/develop/altera/13.1/nios2eds/bin/gnu/h-i686-mingw32/bin/../lib/gcc/nios2-elf/4.7.3\libgcc.a(_unpack_df.o)
 .debug_str     0x00000000      0x1e4 c:/develop/altera/13.1/nios2eds/bin/gnu/h-i686-mingw32/bin/../lib/gcc/nios2-elf/4.7.3\libgcc.a(_fpcmp_parts_df.o)
 .debug_str     0x00002cc9       0x23 c:/develop/altera/13.1/nios2eds/bin/gnu/h-i686-mingw32/bin/../lib/gcc/nios2-elf/4.7.3\libgcc.a(_lshrdi3.o)
                                0x194 (size before relaxing)
 .debug_str     0x00002cec        0xa c:/develop/altera/13.1/nios2eds/bin/gnu/h-i686-mingw32/bin/../lib/gcc/nios2-elf/4.7.3\libgcc.a(_ashldi3.o)
                                0x194 (size before relaxing)
 .debug_str     0x00002cf6       0xda ../lcdunit_ckplay_bsp/\libhal_bsp.a(alt_alarm_start.o)
                                0x24f (size before relaxing)
 .debug_str     0x00002dd0       0x53 ../lcdunit_ckplay_bsp/\libhal_bsp.a(alt_close.o)
                                0x1eb (size before relaxing)
 .debug_str     0x00002e23       0x50 ../lcdunit_ckplay_bsp/\libhal_bsp.a(alt_dev.o)
                                0x2d6 (size before relaxing)
 .debug_str     0x00002e73       0x14 ../lcdunit_ckplay_bsp/\libhal_bsp.a(alt_errno.o)
                                0x116 (size before relaxing)
 .debug_str     0x00002e87       0x15 ../lcdunit_ckplay_bsp/\libhal_bsp.a(alt_fs_reg.o)
                                0x1da (size before relaxing)
 .debug_str     0x00002e9c       0x14 ../lcdunit_ckplay_bsp/\libhal_bsp.a(alt_fstat.o)
                                0x2bd (size before relaxing)
 .debug_str     0x00002eb0       0x15 ../lcdunit_ckplay_bsp/\libhal_bsp.a(alt_isatty.o)
                                0x2c5 (size before relaxing)
 .debug_str     0x00002ec5       0xe9 ../lcdunit_ckplay_bsp/\libhal_bsp.a(alt_load.o)
                                0x1e3 (size before relaxing)
 .debug_str     0x00002fae       0x14 ../lcdunit_ckplay_bsp/\libhal_bsp.a(alt_lseek.o)
                                0x1e2 (size before relaxing)
 .debug_str     0x00002fc2       0x78 ../lcdunit_ckplay_bsp/\libhal_bsp.a(alt_main.o)
                                0x1b9 (size before relaxing)
 .debug_str     0x0000303a       0x1a ../lcdunit_ckplay_bsp/\libhal_bsp.a(alt_malloc_lock.o)
                                0x4bf (size before relaxing)
 .debug_str     0x00003054       0x13 ../lcdunit_ckplay_bsp/\libhal_bsp.a(alt_read.o)
                                0x2c8 (size before relaxing)
 .debug_str     0x00003067       0x19 ../lcdunit_ckplay_bsp/\libhal_bsp.a(alt_release_fd.o)
                                0x1b0 (size before relaxing)
 .debug_str     0x00003080       0x61 ../lcdunit_ckplay_bsp/\libhal_bsp.a(alt_sbrk.o)
                                0x1a5 (size before relaxing)
 .debug_str     0x000030e1       0x4a ../lcdunit_ckplay_bsp/\libhal_bsp.a(alt_tick.o)
                                0x223 (size before relaxing)
 .debug_str     0x0000312b       0x1c ../lcdunit_ckplay_bsp/\libhal_bsp.a(alt_uncached_free.o)
                                0x12d (size before relaxing)
 .debug_str     0x00003147       0x2f ../lcdunit_ckplay_bsp/\libhal_bsp.a(alt_uncached_malloc.o)
                                0x150 (size before relaxing)
 .debug_str     0x00003176       0x15 ../lcdunit_ckplay_bsp/\libhal_bsp.a(alt_usleep.o)
                                0x119 (size before relaxing)
 .debug_str     0x0000318b       0x14 ../lcdunit_ckplay_bsp/\libhal_bsp.a(alt_write.o)
                                0x2c9 (size before relaxing)
 .debug_str     0x0000319f      0x19d ../lcdunit_ckplay_bsp/\libhal_bsp.a(alt_sys_init.o)
                                0x3c5 (size before relaxing)
 .debug_str     0x0000333c      0x123 ../lcdunit_ckplay_bsp/\libhal_bsp.a(altera_avalon_jtag_uart_fd.o)
                                0x3ec (size before relaxing)
 .debug_str     0x0000345f       0xa2 ../lcdunit_ckplay_bsp/\libhal_bsp.a(altera_avalon_jtag_uart_init.o)
                                0x33a (size before relaxing)
 .debug_str     0x00003501       0x2c ../lcdunit_ckplay_bsp/\libhal_bsp.a(altera_avalon_jtag_uart_ioctl.o)
                                0x264 (size before relaxing)
 .debug_str     0x0000352d       0x2b ../lcdunit_ckplay_bsp/\libhal_bsp.a(altera_avalon_jtag_uart_read.o)
                                0x2c0 (size before relaxing)
 .debug_str     0x00003558       0x2c ../lcdunit_ckplay_bsp/\libhal_bsp.a(altera_avalon_jtag_uart_write.o)
                                0x2c1 (size before relaxing)
 .debug_str     0x00003584       0x54 ../lcdunit_ckplay_bsp/\libhal_bsp.a(altera_avalon_timer_sc.o)
                                0x246 (size before relaxing)
 .debug_str     0x000035d8       0x42 ../lcdunit_ckplay_bsp/\libhal_bsp.a(alt_busy_sleep.o)
                                0x13c (size before relaxing)
 .debug_str     0x0000361a       0x1b ../lcdunit_ckplay_bsp/\libhal_bsp.a(alt_dcache_flush.o)
                                0x12c (size before relaxing)
 .debug_str     0x00003635       0x34 ../lcdunit_ckplay_bsp/\libhal_bsp.a(alt_dcache_flush_all.o)
                                0x126 (size before relaxing)
 .debug_str     0x00003669       0x1f ../lcdunit_ckplay_bsp/\libhal_bsp.a(alt_dev_llist_insert.o)
                                0x19d (size before relaxing)
 .debug_str     0x00003688       0x3e ../lcdunit_ckplay_bsp/\libhal_bsp.a(alt_do_ctors.o)
                                 0xad (size before relaxing)
 .debug_str     0x000036c6       0x4c ../lcdunit_ckplay_bsp/\libhal_bsp.a(alt_do_dtors.o)
                                 0xac (size before relaxing)
 .debug_str     0x00003712       0x45 ../lcdunit_ckplay_bsp/\libhal_bsp.a(alt_icache_flush_all.o)
                                0x13f (size before relaxing)
 .debug_str     0x00003757       0xb1 ../lcdunit_ckplay_bsp/\libhal_bsp.a(alt_iic.o)
                                0x224 (size before relaxing)
 .debug_str     0x00003808       0x37 ../lcdunit_ckplay_bsp/\libhal_bsp.a(alt_iic_isr_register.o)
                                0x1de (size before relaxing)
 .debug_str     0x0000383f       0x46 ../lcdunit_ckplay_bsp/\libhal_bsp.a(alt_io_redirect.o)
                                0x2f6 (size before relaxing)
 .debug_str     0x00003885       0x3a ../lcdunit_ckplay_bsp/\libhal_bsp.a(alt_irq_handler.o)
                                0x168 (size before relaxing)
 .debug_str     0x000038bf       0x17 ../lcdunit_ckplay_bsp/\libhal_bsp.a(alt_irq_vars.o)
                                0x117 (size before relaxing)
 .debug_str     0x000038d6       0x4f ../lcdunit_ckplay_bsp/\libhal_bsp.a(alt_open.o)
                                0x251 (size before relaxing)
 .debug_str     0x00003925       0x20 ../lcdunit_ckplay_bsp/\libhal_bsp.a(altera_nios2_qsys_irq.o)
                                0x12d (size before relaxing)
 .debug_str     0x00003945       0x1e ../lcdunit_ckplay_bsp/\libhal_bsp.a(alt_find_dev.o)
                                0x1d2 (size before relaxing)
 .debug_str     0x00003963       0x18 ../lcdunit_ckplay_bsp/\libhal_bsp.a(alt_find_file.o)
                                0x1e0 (size before relaxing)
 .debug_str     0x0000397b       0x25 ../lcdunit_ckplay_bsp/\libhal_bsp.a(alt_get_fd.o)
                                0x1ed (size before relaxing)
 .debug_str     0x000039a0       0x1b ../lcdunit_ckplay_bsp/\libhal_bsp.a(alt_icache_flush.o)
                                0x12c (size before relaxing)
 .debug_str     0x000039bb       0x7f c:/develop/altera/13.1/nios2eds/bin/gnu/h-i686-mingw32/bin/../lib/gcc/nios2-elf/4.7.3/../../../../../H-i686-mingw32/nios2-elf/lib\libc.a(lib_a-atexit.o)
                                0x20f (size before relaxing)
 .debug_str     0x00003a3a       0x4a c:/develop/altera/13.1/nios2eds/bin/gnu/h-i686-mingw32/bin/../lib/gcc/nios2-elf/4.7.3/../../../../../H-i686-mingw32/nios2-elf/lib\libc.a(lib_a-exit.o)
                                0x52f (size before relaxing)
 .debug_str     0x00003a84       0x3b c:/develop/altera/13.1/nios2eds/bin/gnu/h-i686-mingw32/bin/../lib/gcc/nios2-elf/4.7.3/../../../../../H-i686-mingw32/nios2-elf/lib\libc.a(lib_a-memcmp.o)
                                0x176 (size before relaxing)
 .debug_str     0x00003abf       0x3d c:/develop/altera/13.1/nios2eds/bin/gnu/h-i686-mingw32/bin/../lib/gcc/nios2-elf/4.7.3/../../../../../H-i686-mingw32/nios2-elf/lib\libc.a(lib_a-__atexit.o)
                                0x573 (size before relaxing)
 .debug_str     0x00003afc       0x5c c:/develop/altera/13.1/nios2eds/bin/gnu/h-i686-mingw32/bin/../lib/gcc/nios2-elf/4.7.3/../../../../../H-i686-mingw32/nios2-elf/lib\libc.a(lib_a-__call_atexit.o)
                                0x551 (size before relaxing)
 .debug_str     0x00003b58       0x2a ../lcdunit_ckplay_bsp/\libhal_bsp.a(alt_exit.o)
                                0x122 (size before relaxing)

.debug_loc      0x00000000    0x1ac14
 *(.debug_loc)
 .debug_loc     0x00000000      0x246 obj/default/ckplay.o
 .debug_loc     0x00000246     0x5028 obj/default/mmcfs/fatfs/ff.o
 .debug_loc     0x0000526e      0xa1c obj/default/mmcfs/fatfs/mmcbb.o
 .debug_loc     0x00005c8a      0x155 obj/default/mmcfs/fatfs/option/cc932.o
 .debug_loc     0x00005ddf      0x161 obj/default/mmcfs/mmc_spi.o
 .debug_loc     0x00005f40      0x5e3 obj/default/mmcfs/mmcfs.o
 .debug_loc     0x00006523       0xae obj/default/nd_lib/ILI9325.o
 .debug_loc     0x000065d1      0xf93 obj/default/nd_lib/nd_acm.o
 .debug_loc     0x00007564     0x14d7 obj/default/nd_lib/nd_egl.o
 .debug_loc     0x00008a3b      0x338 c:/develop/altera/13.1/nios2eds/bin/gnu/h-i686-mingw32/bin/../lib/gcc/nios2-elf/4.7.3\libgcc.a(lib2-divmod.o)
 .debug_loc     0x00008d73       0x58 c:/develop/altera/13.1/nios2eds/bin/gnu/h-i686-mingw32/bin/../lib/gcc/nios2-elf/4.7.3/../../../../../H-i686-mingw32/nios2-elf/lib\libc.a(lib_a-malloc.o)
 .debug_loc     0x00008dcb      0xb50 c:/develop/altera/13.1/nios2eds/bin/gnu/h-i686-mingw32/bin/../lib/gcc/nios2-elf/4.7.3/../../../../../H-i686-mingw32/nios2-elf/lib\libc.a(lib_a-mallocr.o)
 .debug_loc     0x0000991b      0x1f2 c:/develop/altera/13.1/nios2eds/bin/gnu/h-i686-mingw32/bin/../lib/gcc/nios2-elf/4.7.3/../../../../../H-i686-mingw32/nios2-elf/lib\libc.a(lib_a-memcpy.o)
 .debug_loc     0x00009b0d      0x1b7 c:/develop/altera/13.1/nios2eds/bin/gnu/h-i686-mingw32/bin/../lib/gcc/nios2-elf/4.7.3/../../../../../H-i686-mingw32/nios2-elf/lib\libc.a(lib_a-memset.o)
 .debug_loc     0x00009cc4      0x132 c:/develop/altera/13.1/nios2eds/bin/gnu/h-i686-mingw32/bin/../lib/gcc/nios2-elf/4.7.3/../../../../../H-i686-mingw32/nios2-elf/lib\libc.a(lib_a-printf.o)
 .debug_loc     0x00009df6       0x6e c:/develop/altera/13.1/nios2eds/bin/gnu/h-i686-mingw32/bin/../lib/gcc/nios2-elf/4.7.3/../../../../../H-i686-mingw32/nios2-elf/lib\libc.a(lib_a-putchar.o)
 .debug_loc     0x00009e64       0xd9 c:/develop/altera/13.1/nios2eds/bin/gnu/h-i686-mingw32/bin/../lib/gcc/nios2-elf/4.7.3/../../../../../H-i686-mingw32/nios2-elf/lib\libc.a(lib_a-puts.o)
 .debug_loc     0x00009f3d       0x86 c:/develop/altera/13.1/nios2eds/bin/gnu/h-i686-mingw32/bin/../lib/gcc/nios2-elf/4.7.3/../../../../../H-i686-mingw32/nios2-elf/lib\libc.a(lib_a-sbrkr.o)
 .debug_loc     0x00009fc3      0x191 c:/develop/altera/13.1/nios2eds/bin/gnu/h-i686-mingw32/bin/../lib/gcc/nios2-elf/4.7.3/../../../../../H-i686-mingw32/nios2-elf/lib\libc.a(lib_a-strcpy.o)
 .debug_loc     0x0000a154       0x52 c:/develop/altera/13.1/nios2eds/bin/gnu/h-i686-mingw32/bin/../lib/gcc/nios2-elf/4.7.3/../../../../../H-i686-mingw32/nios2-elf/lib\libc.a(lib_a-strlen.o)
 .debug_loc     0x0000a1a6     0x2b6b c:/develop/altera/13.1/nios2eds/bin/gnu/h-i686-mingw32/bin/../lib/gcc/nios2-elf/4.7.3/../../../../../H-i686-mingw32/nios2-elf/lib\libc.a(lib_a-vfprintf.o)
 .debug_loc     0x0000cd11       0xba c:/develop/altera/13.1/nios2eds/bin/gnu/h-i686-mingw32/bin/../lib/gcc/nios2-elf/4.7.3/../../../../../H-i686-mingw32/nios2-elf/lib\libc.a(lib_a-wsetup.o)
 .debug_loc     0x0000cdcb     0x2286 c:/develop/altera/13.1/nios2eds/bin/gnu/h-i686-mingw32/bin/../lib/gcc/nios2-elf/4.7.3/../../../../../H-i686-mingw32/nios2-elf/lib\libc.a(lib_a-dtoa.o)
 .debug_loc     0x0000f051      0x259 c:/develop/altera/13.1/nios2eds/bin/gnu/h-i686-mingw32/bin/../lib/gcc/nios2-elf/4.7.3/../../../../../H-i686-mingw32/nios2-elf/lib\libc.a(lib_a-fflush.o)
 .debug_loc     0x0000f2aa      0x29c c:/develop/altera/13.1/nios2eds/bin/gnu/h-i686-mingw32/bin/../lib/gcc/nios2-elf/4.7.3/../../../../../H-i686-mingw32/nios2-elf/lib\libc.a(lib_a-findfp.o)
 .debug_loc     0x0000f546      0x668 c:/develop/altera/13.1/nios2eds/bin/gnu/h-i686-mingw32/bin/../lib/gcc/nios2-elf/4.7.3/../../../../../H-i686-mingw32/nios2-elf/lib\libc.a(lib_a-freer.o)
 .debug_loc     0x0000fbae      0x50c c:/develop/altera/13.1/nios2eds/bin/gnu/h-i686-mingw32/bin/../lib/gcc/nios2-elf/4.7.3/../../../../../H-i686-mingw32/nios2-elf/lib\libc.a(lib_a-fvwrite.o)
 .debug_loc     0x000100ba      0x2ae c:/develop/altera/13.1/nios2eds/bin/gnu/h-i686-mingw32/bin/../lib/gcc/nios2-elf/4.7.3/../../../../../H-i686-mingw32/nios2-elf/lib\libc.a(lib_a-fwalk.o)
 .debug_loc     0x00010368      0x13e c:/develop/altera/13.1/nios2eds/bin/gnu/h-i686-mingw32/bin/../lib/gcc/nios2-elf/4.7.3/../../../../../H-i686-mingw32/nios2-elf/lib\libc.a(lib_a-locale.o)
 .debug_loc     0x000104a6      0x16a c:/develop/altera/13.1/nios2eds/bin/gnu/h-i686-mingw32/bin/../lib/gcc/nios2-elf/4.7.3/../../../../../H-i686-mingw32/nios2-elf/lib\libc.a(lib_a-makebuf.o)
 .debug_loc     0x00010610      0x239 c:/develop/altera/13.1/nios2eds/bin/gnu/h-i686-mingw32/bin/../lib/gcc/nios2-elf/4.7.3/../../../../../H-i686-mingw32/nios2-elf/lib\libc.a(lib_a-memchr.o)
 .debug_loc     0x00010849      0x240 c:/develop/altera/13.1/nios2eds/bin/gnu/h-i686-mingw32/bin/../lib/gcc/nios2-elf/4.7.3/../../../../../H-i686-mingw32/nios2-elf/lib\libc.a(lib_a-memmove.o)
 .debug_loc     0x00010a89     0x1b23 c:/develop/altera/13.1/nios2eds/bin/gnu/h-i686-mingw32/bin/../lib/gcc/nios2-elf/4.7.3/../../../../../H-i686-mingw32/nios2-elf/lib\libc.a(lib_a-mprec.o)
 .debug_loc     0x000125ac      0x257 c:/develop/altera/13.1/nios2eds/bin/gnu/h-i686-mingw32/bin/../lib/gcc/nios2-elf/4.7.3/../../../../../H-i686-mingw32/nios2-elf/lib\libc.a(lib_a-putc.o)
 .debug_loc     0x00012803     0x1136 c:/develop/altera/13.1/nios2eds/bin/gnu/h-i686-mingw32/bin/../lib/gcc/nios2-elf/4.7.3/../../../../../H-i686-mingw32/nios2-elf/lib\libc.a(lib_a-reallocr.o)
 .debug_loc     0x00013939       0x88 c:/develop/altera/13.1/nios2eds/bin/gnu/h-i686-mingw32/bin/../lib/gcc/nios2-elf/4.7.3/../../../../../H-i686-mingw32/nios2-elf/lib\libc.a(lib_a-s_isinfd.o)
 .debug_loc     0x000139c1       0xa5 c:/develop/altera/13.1/nios2eds/bin/gnu/h-i686-mingw32/bin/../lib/gcc/nios2-elf/4.7.3/../../../../../H-i686-mingw32/nios2-elf/lib\libc.a(lib_a-s_isnand.o)
 .debug_loc     0x00013a66      0x379 c:/develop/altera/13.1/nios2eds/bin/gnu/h-i686-mingw32/bin/../lib/gcc/nios2-elf/4.7.3/../../../../../H-i686-mingw32/nios2-elf/lib\libc.a(lib_a-stdio.o)
 .debug_loc     0x00013ddf       0xb0 c:/develop/altera/13.1/nios2eds/bin/gnu/h-i686-mingw32/bin/../lib/gcc/nios2-elf/4.7.3/../../../../../H-i686-mingw32/nios2-elf/lib\libc.a(lib_a-strcmp.o)
 .debug_loc     0x00013e8f      0x193 c:/develop/altera/13.1/nios2eds/bin/gnu/h-i686-mingw32/bin/../lib/gcc/nios2-elf/4.7.3/../../../../../H-i686-mingw32/nios2-elf/lib\libc.a(lib_a-wbuf.o)
 .debug_loc     0x00014022       0xde c:/develop/altera/13.1/nios2eds/bin/gnu/h-i686-mingw32/bin/../lib/gcc/nios2-elf/4.7.3/../../../../../H-i686-mingw32/nios2-elf/lib\libc.a(lib_a-writer.o)
 .debug_loc     0x00014100      0x283 c:/develop/altera/13.1/nios2eds/bin/gnu/h-i686-mingw32/bin/../lib/gcc/nios2-elf/4.7.3/../../../../../H-i686-mingw32/nios2-elf/lib\libc.a(lib_a-callocr.o)
 .debug_loc     0x00014383       0x86 c:/develop/altera/13.1/nios2eds/bin/gnu/h-i686-mingw32/bin/../lib/gcc/nios2-elf/4.7.3/../../../../../H-i686-mingw32/nios2-elf/lib\libc.a(lib_a-closer.o)
 .debug_loc     0x00014409      0x136 c:/develop/altera/13.1/nios2eds/bin/gnu/h-i686-mingw32/bin/../lib/gcc/nios2-elf/4.7.3/../../../../../H-i686-mingw32/nios2-elf/lib\libc.a(lib_a-fclose.o)
 .debug_loc     0x0001453f       0xb2 c:/develop/altera/13.1/nios2eds/bin/gnu/h-i686-mingw32/bin/../lib/gcc/nios2-elf/4.7.3/../../../../../H-i686-mingw32/nios2-elf/lib\libc.a(lib_a-fstatr.o)
 .debug_loc     0x000145f1       0x86 c:/develop/altera/13.1/nios2eds/bin/gnu/h-i686-mingw32/bin/../lib/gcc/nios2-elf/4.7.3/../../../../../H-i686-mingw32/nios2-elf/lib\libc.a(lib_a-isattyr.o)
 .debug_loc     0x00014677       0xde c:/develop/altera/13.1/nios2eds/bin/gnu/h-i686-mingw32/bin/../lib/gcc/nios2-elf/4.7.3/../../../../../H-i686-mingw32/nios2-elf/lib\libc.a(lib_a-lseekr.o)
 .debug_loc     0x00014755       0xde c:/develop/altera/13.1/nios2eds/bin/gnu/h-i686-mingw32/bin/../lib/gcc/nios2-elf/4.7.3/../../../../../H-i686-mingw32/nios2-elf/lib\libc.a(lib_a-readr.o)
 .debug_loc     0x00014833     0x10da c:/develop/altera/13.1/nios2eds/bin/gnu/h-i686-mingw32/bin/../lib/gcc/nios2-elf/4.7.3\libgcc.a(_udivdi3.o)
 .debug_loc     0x0001590d     0x104d c:/develop/altera/13.1/nios2eds/bin/gnu/h-i686-mingw32/bin/../lib/gcc/nios2-elf/4.7.3\libgcc.a(_umoddi3.o)
 .debug_loc     0x0001695a      0x7a1 c:/develop/altera/13.1/nios2eds/bin/gnu/h-i686-mingw32/bin/../lib/gcc/nios2-elf/4.7.3\libgcc.a(_addsub_df.o)
 .debug_loc     0x000170fb      0x3ba c:/develop/altera/13.1/nios2eds/bin/gnu/h-i686-mingw32/bin/../lib/gcc/nios2-elf/4.7.3\libgcc.a(_mul_df.o)
 .debug_loc     0x000174b5      0x25e c:/develop/altera/13.1/nios2eds/bin/gnu/h-i686-mingw32/bin/../lib/gcc/nios2-elf/4.7.3\libgcc.a(_div_df.o)
 .debug_loc     0x00017713       0x70 c:/develop/altera/13.1/nios2eds/bin/gnu/h-i686-mingw32/bin/../lib/gcc/nios2-elf/4.7.3\libgcc.a(_eq_df.o)
 .debug_loc     0x00017783       0x70 c:/develop/altera/13.1/nios2eds/bin/gnu/h-i686-mingw32/bin/../lib/gcc/nios2-elf/4.7.3\libgcc.a(_ne_df.o)
 .debug_loc     0x000177f3       0x70 c:/develop/altera/13.1/nios2eds/bin/gnu/h-i686-mingw32/bin/../lib/gcc/nios2-elf/4.7.3\libgcc.a(_gt_df.o)
 .debug_loc     0x00017863       0x70 c:/develop/altera/13.1/nios2eds/bin/gnu/h-i686-mingw32/bin/../lib/gcc/nios2-elf/4.7.3\libgcc.a(_ge_df.o)
 .debug_loc     0x000178d3       0x70 c:/develop/altera/13.1/nios2eds/bin/gnu/h-i686-mingw32/bin/../lib/gcc/nios2-elf/4.7.3\libgcc.a(_lt_df.o)
 .debug_loc     0x00017943       0xd3 c:/develop/altera/13.1/nios2eds/bin/gnu/h-i686-mingw32/bin/../lib/gcc/nios2-elf/4.7.3\libgcc.a(_si_to_df.o)
 .debug_loc     0x00017a16       0xce c:/develop/altera/13.1/nios2eds/bin/gnu/h-i686-mingw32/bin/../lib/gcc/nios2-elf/4.7.3\libgcc.a(_df_to_si.o)
 .debug_loc     0x00017ae4      0x168 c:/develop/altera/13.1/nios2eds/bin/gnu/h-i686-mingw32/bin/../lib/gcc/nios2-elf/4.7.3\libgcc.a(_usi_to_df.o)
 .debug_loc     0x00017c4c      0x15d c:/develop/altera/13.1/nios2eds/bin/gnu/h-i686-mingw32/bin/../lib/gcc/nios2-elf/4.7.3\libgcc.a(_muldi3.o)
 .debug_loc     0x00017da9      0x19a c:/develop/altera/13.1/nios2eds/bin/gnu/h-i686-mingw32/bin/../lib/gcc/nios2-elf/4.7.3\libgcc.a(_clzsi2.o)
 .debug_loc     0x00017f43      0x2ae c:/develop/altera/13.1/nios2eds/bin/gnu/h-i686-mingw32/bin/../lib/gcc/nios2-elf/4.7.3\libgcc.a(_pack_df.o)
 .debug_loc     0x000181f1      0x179 c:/develop/altera/13.1/nios2eds/bin/gnu/h-i686-mingw32/bin/../lib/gcc/nios2-elf/4.7.3\libgcc.a(_unpack_df.o)
 .debug_loc     0x0001836a       0x7c c:/develop/altera/13.1/nios2eds/bin/gnu/h-i686-mingw32/bin/../lib/gcc/nios2-elf/4.7.3\libgcc.a(_fpcmp_parts_df.o)
 .debug_loc     0x000183e6       0xc4 c:/develop/altera/13.1/nios2eds/bin/gnu/h-i686-mingw32/bin/../lib/gcc/nios2-elf/4.7.3\libgcc.a(_lshrdi3.o)
 .debug_loc     0x000184aa       0xc4 c:/develop/altera/13.1/nios2eds/bin/gnu/h-i686-mingw32/bin/../lib/gcc/nios2-elf/4.7.3\libgcc.a(_ashldi3.o)
 .debug_loc     0x0001856e       0xaf ../lcdunit_ckplay_bsp/\libhal_bsp.a(alt_alarm_start.o)
 .debug_loc     0x0001861d      0x151 ../lcdunit_ckplay_bsp/\libhal_bsp.a(alt_close.o)
 .debug_loc     0x0001876e       0x13 ../lcdunit_ckplay_bsp/\libhal_bsp.a(alt_fs_reg.o)
 .debug_loc     0x00018781      0x119 ../lcdunit_ckplay_bsp/\libhal_bsp.a(alt_fstat.o)
 .debug_loc     0x0001889a       0xce ../lcdunit_ckplay_bsp/\libhal_bsp.a(alt_isatty.o)
 .debug_loc     0x00018968       0x58 ../lcdunit_ckplay_bsp/\libhal_bsp.a(alt_load.o)
 .debug_loc     0x000189c0      0x198 ../lcdunit_ckplay_bsp/\libhal_bsp.a(alt_lseek.o)
 .debug_loc     0x00018b58       0x3e ../lcdunit_ckplay_bsp/\libhal_bsp.a(alt_main.o)
 .debug_loc     0x00018b96       0x58 ../lcdunit_ckplay_bsp/\libhal_bsp.a(alt_malloc_lock.o)
 .debug_loc     0x00018bee      0x233 ../lcdunit_ckplay_bsp/\libhal_bsp.a(alt_read.o)
 .debug_loc     0x00018e21       0x21 ../lcdunit_ckplay_bsp/\libhal_bsp.a(alt_release_fd.o)
 .debug_loc     0x00018e42       0x47 ../lcdunit_ckplay_bsp/\libhal_bsp.a(alt_sbrk.o)
 .debug_loc     0x00018e89       0xb1 ../lcdunit_ckplay_bsp/\libhal_bsp.a(alt_tick.o)
 .debug_loc     0x00018f3a       0x21 ../lcdunit_ckplay_bsp/\libhal_bsp.a(alt_uncached_free.o)
 .debug_loc     0x00018f5b       0x80 ../lcdunit_ckplay_bsp/\libhal_bsp.a(alt_uncached_malloc.o)
 .debug_loc     0x00018fdb       0x2c ../lcdunit_ckplay_bsp/\libhal_bsp.a(alt_usleep.o)
 .debug_loc     0x00019007      0x233 ../lcdunit_ckplay_bsp/\libhal_bsp.a(alt_write.o)
 .debug_loc     0x0001923a       0x61 ../lcdunit_ckplay_bsp/\libhal_bsp.a(alt_sys_init.o)
 .debug_loc     0x0001929b      0x1d3 ../lcdunit_ckplay_bsp/\libhal_bsp.a(altera_avalon_jtag_uart_fd.o)
 .debug_loc     0x0001946e      0x179 ../lcdunit_ckplay_bsp/\libhal_bsp.a(altera_avalon_jtag_uart_init.o)
 .debug_loc     0x000195e7       0xb3 ../lcdunit_ckplay_bsp/\libhal_bsp.a(altera_avalon_jtag_uart_ioctl.o)
 .debug_loc     0x0001969a      0x213 ../lcdunit_ckplay_bsp/\libhal_bsp.a(altera_avalon_jtag_uart_read.o)
 .debug_loc     0x000198ad      0x248 ../lcdunit_ckplay_bsp/\libhal_bsp.a(altera_avalon_jtag_uart_write.o)
 .debug_loc     0x00019af5      0x14d ../lcdunit_ckplay_bsp/\libhal_bsp.a(altera_avalon_timer_sc.o)
 .debug_loc     0x00019c42       0x88 ../lcdunit_ckplay_bsp/\libhal_bsp.a(alt_busy_sleep.o)
 .debug_loc     0x00019cca       0x58 ../lcdunit_ckplay_bsp/\libhal_bsp.a(alt_dev_llist_insert.o)
 .debug_loc     0x00019d22       0x2c ../lcdunit_ckplay_bsp/\libhal_bsp.a(alt_do_ctors.o)
 .debug_loc     0x00019d4e       0x2c ../lcdunit_ckplay_bsp/\libhal_bsp.a(alt_do_dtors.o)
 .debug_loc     0x00019d7a      0x13c ../lcdunit_ckplay_bsp/\libhal_bsp.a(alt_iic.o)
 .debug_loc     0x00019eb6      0x192 ../lcdunit_ckplay_bsp/\libhal_bsp.a(alt_iic_isr_register.o)
 .debug_loc     0x0001a048      0x195 ../lcdunit_ckplay_bsp/\libhal_bsp.a(alt_io_redirect.o)
 .debug_loc     0x0001a1dd       0x84 ../lcdunit_ckplay_bsp/\libhal_bsp.a(alt_irq_handler.o)
 .debug_loc     0x0001a261      0x2a6 ../lcdunit_ckplay_bsp/\libhal_bsp.a(alt_open.o)
 .debug_loc     0x0001a507       0xf1 ../lcdunit_ckplay_bsp/\libhal_bsp.a(alt_find_dev.o)
 .debug_loc     0x0001a5f8       0x9e ../lcdunit_ckplay_bsp/\libhal_bsp.a(alt_find_file.o)
 .debug_loc     0x0001a696       0x4a ../lcdunit_ckplay_bsp/\libhal_bsp.a(alt_get_fd.o)
 .debug_loc     0x0001a6e0       0x52 ../lcdunit_ckplay_bsp/\libhal_bsp.a(alt_icache_flush.o)
 .debug_loc     0x0001a732       0x2c c:/develop/altera/13.1/nios2eds/bin/gnu/h-i686-mingw32/bin/../lib/gcc/nios2-elf/4.7.3/../../../../../H-i686-mingw32/nios2-elf/lib\libc.a(lib_a-atexit.o)
 .debug_loc     0x0001a75e       0x3e c:/develop/altera/13.1/nios2eds/bin/gnu/h-i686-mingw32/bin/../lib/gcc/nios2-elf/4.7.3/../../../../../H-i686-mingw32/nios2-elf/lib\libc.a(lib_a-exit.o)
 .debug_loc     0x0001a79c      0x103 c:/develop/altera/13.1/nios2eds/bin/gnu/h-i686-mingw32/bin/../lib/gcc/nios2-elf/4.7.3/../../../../../H-i686-mingw32/nios2-elf/lib\libc.a(lib_a-memcmp.o)
 .debug_loc     0x0001a89f      0x194 c:/develop/altera/13.1/nios2eds/bin/gnu/h-i686-mingw32/bin/../lib/gcc/nios2-elf/4.7.3/../../../../../H-i686-mingw32/nios2-elf/lib\libc.a(lib_a-__atexit.o)
 .debug_loc     0x0001aa33      0x1e1 c:/develop/altera/13.1/nios2eds/bin/gnu/h-i686-mingw32/bin/../lib/gcc/nios2-elf/4.7.3/../../../../../H-i686-mingw32/nios2-elf/lib\libc.a(lib_a-__call_atexit.o)

.debug_macinfo
 *(.debug_macinfo)

.debug_weaknames
 *(.debug_weaknames)

.debug_funcnames
 *(.debug_funcnames)

.debug_typenames
 *(.debug_typenames)

.debug_varnames
 *(.debug_varnames)

.debug_alt_sim_info
                0x00000000       0x40
 *(.debug_alt_sim_info)
 .debug_alt_sim_info
                0x00000000       0x10 ../lcdunit_ckplay_bsp//obj/HAL/src/crt0.o
 .debug_alt_sim_info
                0x00000010       0x30 ../lcdunit_ckplay_bsp/\libhal_bsp.a(alt_busy_sleep.o)
                0x00800000                __alt_data_end = 0x800000
                0x00800000                PROVIDE (__alt_stack_pointer, __alt_data_end)
                0x000241f0                PROVIDE (__alt_stack_limit, __alt_stack_base)
                0x000241f0                PROVIDE (__alt_heap_start, end)
                0x00800000                PROVIDE (__alt_heap_limit, 0x800000)
OUTPUT(lcdunit_ckplay.elf elf32-littlenios2)

.debug_ranges   0x00000000      0xfe0
 .debug_ranges  0x00000000       0x18 obj/default/ckplay.o
 .debug_ranges  0x00000018      0x3a8 obj/default/mmcfs/fatfs/ff.o
 .debug_ranges  0x000003c0       0x38 obj/default/mmcfs/fatfs/mmcbb.o
 .debug_ranges  0x000003f8       0x70 c:/develop/altera/13.1/nios2eds/bin/gnu/h-i686-mingw32/bin/../lib/gcc/nios2-elf/4.7.3/../../../../../H-i686-mingw32/nios2-elf/lib\libc.a(lib_a-mallocr.o)
 .debug_ranges  0x00000468      0x150 c:/develop/altera/13.1/nios2eds/bin/gnu/h-i686-mingw32/bin/../lib/gcc/nios2-elf/4.7.3/../../../../../H-i686-mingw32/nios2-elf/lib\libc.a(lib_a-vfprintf.o)
 .debug_ranges  0x000005b8       0x20 c:/develop/altera/13.1/nios2eds/bin/gnu/h-i686-mingw32/bin/../lib/gcc/nios2-elf/4.7.3/../../../../../H-i686-mingw32/nios2-elf/lib\libc.a(lib_a-fflush.o)
 .debug_ranges  0x000005d8       0x18 c:/develop/altera/13.1/nios2eds/bin/gnu/h-i686-mingw32/bin/../lib/gcc/nios2-elf/4.7.3/../../../../../H-i686-mingw32/nios2-elf/lib\libc.a(lib_a-fvwrite.o)
 .debug_ranges  0x000005f0       0x80 c:/develop/altera/13.1/nios2eds/bin/gnu/h-i686-mingw32/bin/../lib/gcc/nios2-elf/4.7.3/../../../../../H-i686-mingw32/nios2-elf/lib\libc.a(lib_a-fwalk.o)
 .debug_ranges  0x00000670       0x40 c:/develop/altera/13.1/nios2eds/bin/gnu/h-i686-mingw32/bin/../lib/gcc/nios2-elf/4.7.3/../../../../../H-i686-mingw32/nios2-elf/lib\libc.a(lib_a-mprec.o)
 .debug_ranges  0x000006b0      0x158 c:/develop/altera/13.1/nios2eds/bin/gnu/h-i686-mingw32/bin/../lib/gcc/nios2-elf/4.7.3/../../../../../H-i686-mingw32/nios2-elf/lib\libc.a(lib_a-reallocr.o)
 .debug_ranges  0x00000808       0x48 c:/develop/altera/13.1/nios2eds/bin/gnu/h-i686-mingw32/bin/../lib/gcc/nios2-elf/4.7.3/../../../../../H-i686-mingw32/nios2-elf/lib\libc.a(lib_a-callocr.o)
 .debug_ranges  0x00000850      0x1a0 c:/develop/altera/13.1/nios2eds/bin/gnu/h-i686-mingw32/bin/../lib/gcc/nios2-elf/4.7.3\libgcc.a(_udivdi3.o)
 .debug_ranges  0x000009f0      0x160 c:/develop/altera/13.1/nios2eds/bin/gnu/h-i686-mingw32/bin/../lib/gcc/nios2-elf/4.7.3\libgcc.a(_umoddi3.o)
 .debug_ranges  0x00000b50       0x38 c:/develop/altera/13.1/nios2eds/bin/gnu/h-i686-mingw32/bin/../lib/gcc/nios2-elf/4.7.3\libgcc.a(_addsub_df.o)
 .debug_ranges  0x00000b88       0x78 c:/develop/altera/13.1/nios2eds/bin/gnu/h-i686-mingw32/bin/../lib/gcc/nios2-elf/4.7.3\libgcc.a(_mul_df.o)
 .debug_ranges  0x00000c00       0x50 c:/develop/altera/13.1/nios2eds/bin/gnu/h-i686-mingw32/bin/../lib/gcc/nios2-elf/4.7.3\libgcc.a(_div_df.o)
 .debug_ranges  0x00000c50       0x30 c:/develop/altera/13.1/nios2eds/bin/gnu/h-i686-mingw32/bin/../lib/gcc/nios2-elf/4.7.3\libgcc.a(_si_to_df.o)
 .debug_ranges  0x00000c80       0x48 c:/develop/altera/13.1/nios2eds/bin/gnu/h-i686-mingw32/bin/../lib/gcc/nios2-elf/4.7.3\libgcc.a(_usi_to_df.o)
 .debug_ranges  0x00000cc8       0x30 c:/develop/altera/13.1/nios2eds/bin/gnu/h-i686-mingw32/bin/../lib/gcc/nios2-elf/4.7.3\libgcc.a(_muldi3.o)
 .debug_ranges  0x00000cf8       0x28 c:/develop/altera/13.1/nios2eds/bin/gnu/h-i686-mingw32/bin/../lib/gcc/nios2-elf/4.7.3\libgcc.a(_clzsi2.o)
 .debug_ranges  0x00000d20       0x18 c:/develop/altera/13.1/nios2eds/bin/gnu/h-i686-mingw32/bin/../lib/gcc/nios2-elf/4.7.3\libgcc.a(_pack_df.o)
 .debug_ranges  0x00000d38       0x18 ../lcdunit_ckplay_bsp/\libhal_bsp.a(alt_close.o)
 .debug_ranges  0x00000d50       0x18 ../lcdunit_ckplay_bsp/\libhal_bsp.a(alt_fs_reg.o)
 .debug_ranges  0x00000d68       0x18 ../lcdunit_ckplay_bsp/\libhal_bsp.a(alt_isatty.o)
 .debug_ranges  0x00000d80       0x18 ../lcdunit_ckplay_bsp/\libhal_bsp.a(alt_lseek.o)
 .debug_ranges  0x00000d98       0x30 ../lcdunit_ckplay_bsp/\libhal_bsp.a(alt_read.o)
 .debug_ranges  0x00000dc8       0x60 ../lcdunit_ckplay_bsp/\libhal_bsp.a(alt_tick.o)
 .debug_ranges  0x00000e28       0x30 ../lcdunit_ckplay_bsp/\libhal_bsp.a(alt_write.o)
 .debug_ranges  0x00000e58       0x30 ../lcdunit_ckplay_bsp/\libhal_bsp.a(alt_sys_init.o)
 .debug_ranges  0x00000e88       0x38 ../lcdunit_ckplay_bsp/\libhal_bsp.a(altera_avalon_jtag_uart_init.o)
 .debug_ranges  0x00000ec0       0x18 ../lcdunit_ckplay_bsp/\libhal_bsp.a(altera_avalon_jtag_uart_read.o)
 .debug_ranges  0x00000ed8       0x58 ../lcdunit_ckplay_bsp/\libhal_bsp.a(altera_avalon_jtag_uart_write.o)
 .debug_ranges  0x00000f30       0x18 ../lcdunit_ckplay_bsp/\libhal_bsp.a(altera_avalon_timer_sc.o)
 .debug_ranges  0x00000f48       0x28 ../lcdunit_ckplay_bsp/\libhal_bsp.a(alt_irq_entry.o)
 .debug_ranges  0x00000f70       0x10 ../lcdunit_ckplay_bsp/\libhal_bsp.a(alt_irq_handler.o)
 .debug_ranges  0x00000f80       0x18 ../lcdunit_ckplay_bsp/\libhal_bsp.a(alt_open.o)
 .debug_ranges  0x00000f98       0x30 ../lcdunit_ckplay_bsp/\libhal_bsp.a(alt_exception_entry.o)
 .debug_ranges  0x00000fc8       0x18 c:/develop/altera/13.1/nios2eds/bin/gnu/h-i686-mingw32/bin/../lib/gcc/nios2-elf/4.7.3/../../../../../H-i686-mingw32/nios2-elf/lib\libc.a(lib_a-__call_atexit.o)
